ccopy_reg
_reconstructor
p0
(cFWCore.ParameterSet.Config
Process
p1
c__builtin__
object
p2
Ntp3
Rp4
(dp5
S'CaloGeometryBuilder'
p6
g0
(cFWCore.ParameterSet.Modules
ESProducer
p7
g2
Ntp8
Rp9
(dp10
S'_Parameterizable__parameterNames'
p11
(lp12
S'SelectedCalos'
p13
asS'_isFrozen'
p14
I00
sS'_isModified'
p15
I00
sS'_lineNumber'
p16
I40
sS'_filename'
p17
S'/cvmfs/cms.cern.ch/slc6_amd64_gcc493/cms/cmssw/CMSSW_7_6_3/python/FWCore/ParameterSet/Modules.py'
p18
sg13
g0
(cFWCore.ParameterSet.Types
vstring
p19
c__builtin__
list
p20
(lp21
S'HCAL'
p22
aS'ZDC'
p23
aS'CASTOR'
p24
aS'EcalBarrel'
p25
aS'EcalEndcap'
p26
aS'EcalPreshower'
p27
aS'TOWER'
p28
atp29
Rp30
(dp31
g14
I00
sS'_ParameterTypeBase__isTracked'
p32
I01
sg15
I00
sS'_nPerLine'
p33
I1
sbsS'_Labelable__label'
p34
g6
sS'_TypedParameterizable__type'
p35
g6
sbsS'_Process__sequences'
p36
(dp37
S'initialSequence'
p38
g0
(cFWCore.ParameterSet.SequenceTypes
Sequence
p39
g2
Ntp40
Rp41
(dp42
g14
I00
sS'_seq'
p43
g0
(cFWCore.ParameterSet.SequenceTypes
_SequenceCollection
p44
g2
Ntp45
Rp46
(dp47
S'_collection'
p48
(lp49
g0
(cFWCore.ParameterSet.Modules
EDProducer
p50
g2
Ntp51
Rp52
(dp53
g11
(lp54
sg14
I00
sg15
I00
sg16
I42
sg17
S'/afs/cern.ch/work/i/ivanp/CFF_SOFT/CMSSW_7_6_3/python/CommonFSQFramework/Core/customizePAT.py'
p55
sg34
S'initialCntr'
p56
sg35
S'EventCountProducer'
p57
sbasbsg15
I00
sg34
g38
sbssS'_Process__source'
p58
g0
(cFWCore.ParameterSet.Modules
Source
p59
g2
Ntp60
Rp61
(dp62
g11
(lp63
S'fileNames'
p64
asg14
I00
sg15
I00
sg16
I175
sg17
g18
sg64
g0
(g19
g20
(lp65
S'/store/mc/RunIIFall15MiniAODv2/MinBias_TuneCUETHS1-13TeV-herwigpp/MINIAODSIM/noPU_castor_76X_mcRun2_asymptotic_v12-v1/100000/0006DB23-C0E8-E611-A12A-008CFA197DC4.root'
p66
atp67
Rp68
(dp69
g14
I00
sg32
I00
sg15
I00
sg33
I1
sbsg35
S'PoolSource'
p70
sbsS'TFileService'
p71
g0
(cFWCore.ParameterSet.Modules
Service
p72
g2
Ntp73
Rp74
(dp75
g11
(lp76
S'fileName'
p77
asg14
I00
sg15
I00
sg16
I10
sg17
g18
sg77
g0
(cFWCore.ParameterSet.Types
string
p78
g2
Ntp79
Rp80
(dp81
g14
I00
sg32
I01
sS'_value'
p82
S'trees.root'
p83
sg15
I00
sbsg35
g71
sbsS'hcalDDDSimConstants'
p84
g0
(g7
g2
Ntp85
Rp86
(dp87
g11
(lp88
S'appendToDataLabel'
p89
asg14
I00
sg89
g0
(g78
g2
Ntp90
Rp91
(dp92
g14
I00
sg32
I01
sg82
S''
p93
sg15
I00
sbsg15
I00
sg16
I40
sg17
g18
sg34
g84
sg35
S'HcalDDDSimConstantsESModule'
p94
sbsS'source'
p95
g61
sS'CaloTowerGeometryFromDBEP'
p96
g0
(g7
g2
Ntp97
Rp98
(dp99
g11
(lp100
S'applyAlignment'
p101
aS'hcalTopologyConstants'
p102
asg14
I00
sg15
I01
sg16
I40
sg17
g18
sg102
g0
(cFWCore.ParameterSet.Types
PSet
p103
g2
Ntp104
Rp105
(dp106
g14
I00
sg32
I01
sg15
I00
sS'maxDepthHE'
p107
g0
(cFWCore.ParameterSet.Types
int32
p108
g2
Ntp109
Rp110
(dp111
g14
I00
sg32
I01
sg82
I3
sg15
I00
sbsS'maxDepthHB'
p112
g0
(g108
g2
Ntp113
Rp114
(dp115
g14
I00
sg32
I01
sg82
I2
sg15
I00
sbsg11
(lp116
g107
ag112
aS'mode'
p117
asg117
g0
(g78
g2
Ntp118
Rp119
(dp120
g14
I00
sg32
I01
sg82
S'HcalTopologyMode::LHC'
p121
sg15
I00
sbsbsg34
g96
sg101
g0
(cFWCore.ParameterSet.Types
bool
p122
g2
Ntp123
Rp124
(dp125
g14
I00
sg32
I01
sg82
I00
sg15
I00
sbsg35
g96
sbsS'HcalReLabel'
p126
g0
(g103
g2
Ntp127
Rp128
(dp129
g14
I00
sg32
I01
sg15
I00
sS'RelabelRules'
p130
g0
(g103
g2
Ntp131
Rp132
(dp133
g14
I00
sg32
I00
sg15
I00
sS'Eta16'
p134
g0
(cFWCore.ParameterSet.Types
vint32
p135
g20
(lp136
I1
aI1
aI2
aI2
aI2
aI2
aI2
aI2
aI2
aI3
aI3
aI3
aI3
aI3
aI3
aI3
aI3
aI3
aI3
atp137
Rp138
(dp139
g14
I00
sg32
I00
sg15
I00
sbsS'Eta17'
p140
g0
(g135
g20
(lp141
I1
aI1
aI2
aI2
aI3
aI3
aI3
aI4
aI4
aI4
aI4
aI4
aI5
aI5
aI5
aI5
aI5
aI5
aI5
atp142
Rp143
(dp144
g14
I00
sg32
I00
sg15
I00
sbsS'CorrectPhi'
p145
g0
(g122
g2
Ntp146
Rp147
(dp148
g14
I00
sg32
I00
sg82
I00
sg15
I00
sbsg11
(lp149
g134
ag140
aS'Eta1'
p150
ag145
asg150
g0
(g135
g20
(lp151
I1
aI2
aI2
aI2
aI3
aI3
aI3
aI3
aI3
aI3
aI3
aI3
aI3
aI3
aI3
aI3
aI3
aI3
aI3
atp152
Rp153
(dp154
g14
I00
sg32
I00
sg15
I00
sbsbsg11
(lp155
g130
aS'RelabelHits'
p156
asg34
g126
sg156
g0
(g122
g2
Ntp157
Rp158
(dp159
g14
I00
sg32
I00
sg82
I00
sg15
I00
sbsbsS'_Process__InExtendCall'
p160
I00
sS'_Process__producers'
p161
(dp162
S'XS'
p163
g0
(g50
g2
Ntp164
Rp165
(dp166
g11
(lp167
S'value'
p168
aS'provHack'
p169
asg14
I00
sg15
I01
sg16
I39
sg17
g55
sg168
g0
(cFWCore.ParameterSet.Types
double
p170
g2
Ntp171
Rp172
(dp173
g14
I00
sg32
I01
sg82
I-1
sg15
I00
sbsg169
g0
(g78
g2
Ntp174
Rp175
(dp176
g14
I00
sg32
I01
sg82
S'\n################################################################################\nAna version: decorrelations_mc_pythia8\nXS = -1\nisData = False\n################################################################################\n'
p177
sg15
I00
sbsg34
g163
sg35
S'DoubleProducer'
p178
sbsg56
g52
ssS'siPixelQualityESProducer'
p179
g0
(g7
g2
Ntp180
Rp181
(dp182
g11
(lp183
S'ListOfRecordToMerge'
p184
asg14
I00
sg15
I01
sg16
I40
sg17
g18
sg184
g0
(cFWCore.ParameterSet.Types
VPSet
p185
g20
(lp186
g0
(g103
g2
Ntp187
Rp188
(dp189
g14
I00
sg32
I01
sg15
I00
sS'record'
p190
g0
(g78
g2
Ntp191
Rp192
(dp193
g14
I00
sg32
I01
sg82
S'SiPixelQualityFromDbRcd'
p194
sg15
I00
sbsS'tag'
p195
g0
(g78
g2
Ntp196
Rp197
(dp198
g14
I00
sg32
I01
sg82
g93
sg15
I00
sbsg11
(lp199
g190
ag195
asbag0
(g103
g2
Ntp200
Rp201
(dp202
g14
I00
sg32
I01
sg15
I00
sg190
g0
(g78
g2
Ntp203
Rp204
(dp205
g14
I00
sg32
I01
sg82
S'SiPixelDetVOffRcd'
p206
sg15
I00
sbsg195
g0
(g78
g2
Ntp207
Rp208
(dp209
g14
I00
sg32
I01
sg82
g93
sg15
I00
sbsg11
(lp210
g190
ag195
asbatp211
Rp212
(dp213
g14
I00
sg32
I01
sg15
I00
sg33
I1
sbsg34
g179
sg35
S'SiPixelQualityESProducer'
p214
sbsS'GlobalTag'
p215
g0
(cFWCore.ParameterSet.Modules
ESSource
p216
g2
Ntp217
Rp218
(dp219
g11
(lp220
S'DBParameters'
p221
aS'toGet'
p222
aS'connect'
p223
aS'globaltag'
p224
asg14
I00
sg15
I01
sg224
g0
(g78
g2
Ntp225
Rp226
(dp227
g14
I00
sg32
I01
sg82
S'76X_mcRun2_asymptotic_RunIIFall15DR76_v1'
p228
sg15
I01
sbsg16
I11
sg17
S'/cvmfs/cms.cern.ch/slc6_amd64_gcc493/cms/cmssw/CMSSW_7_6_3/python/Configuration/StandardSequences/FrontierConditions_GlobalTag_cfi.py'
p229
sg222
g0
(g185
g20
(lp230
tp231
Rp232
(dp233
g14
I00
sg32
I01
sg15
I00
sg33
I1
sbsg221
g0
(g103
g2
Ntp234
Rp235
(dp236
g14
I00
sg32
I01
sS'authenticationPath'
p237
g0
(g78
g2
Ntp238
Rp239
(dp240
g14
I00
sg32
I00
sg82
g93
sg15
I00
sbsS'connectionRetrialPeriod'
p241
g0
(g108
g2
Ntp242
Rp243
(dp244
g14
I00
sg32
I00
sg82
I10
sg15
I00
sbsg15
I00
sS'idleConnectionCleanupPeriod'
p245
g0
(g108
g2
Ntp246
Rp247
(dp248
g14
I00
sg32
I00
sg82
I10
sg15
I00
sbsS'messageLevel'
p249
g0
(g108
g2
Ntp250
Rp251
(dp252
g14
I00
sg32
I00
sg82
I0
sg15
I00
sbsS'enablePoolAutomaticCleanUp'
p253
g0
(g122
g2
Ntp254
Rp255
(dp256
g14
I00
sg32
I00
sg82
I00
sg15
I00
sbsS'enableConnectionSharing'
p257
g0
(g122
g2
Ntp258
Rp259
(dp260
g14
I00
sg32
I00
sg82
I01
sg15
I00
sbsS'enableReadOnlySessionOnUpdateConnection'
p261
g0
(g122
g2
Ntp262
Rp263
(dp264
g14
I00
sg32
I00
sg82
I00
sg15
I00
sbsg11
(lp265
g237
ag261
ag245
ag249
ag253
ag257
aS'connectionRetrialTimeOut'
p266
aS'connectionTimeOut'
p267
aS'authenticationSystem'
p268
ag241
asg267
g0
(g108
g2
Ntp269
Rp270
(dp271
g14
I00
sg32
I00
sg82
I60
sg15
I00
sbsg268
g0
(g108
g2
Ntp272
Rp273
(dp274
g14
I00
sg32
I00
sg82
I0
sg15
I00
sbsg266
g0
(g108
g2
Ntp275
Rp276
(dp277
g14
I00
sg32
I00
sg82
I60
sg15
I00
sbsbsg223
g0
(g78
g2
Ntp278
Rp279
(dp280
g14
I00
sg32
I01
sg82
S'frontier://FrontierProd/CMS_CONDITIONS'
p281
sg15
I00
sbsg34
g215
sg35
S'PoolDBESSource'
p282
sbsS'_Process__endpaths'
p283
g0
(cFWCore.ParameterSet.DictTypes
SortedKeysDict
p284
c__builtin__
dict
p285
(dp286
tp287
Rp288
(dp289
S'list'
p290
(lp291
sbsS'MuonDetLayerGeometryESProducer'
p292
g0
(g7
g2
Ntp293
Rp294
(dp295
g11
(lp296
sg14
I00
sg15
I00
sg16
I40
sg17
g18
sg34
g292
sg35
g292
sbsg56
g52
sS'EcalEndcapGeometryFromDBEP'
p297
g0
(g7
g2
Ntp298
Rp299
(dp300
g11
(lp301
g101
asg14
I00
sg15
I01
sg16
I40
sg17
g18
sg34
g297
sg101
g0
(g122
g2
Ntp302
Rp303
(dp304
g14
I00
sg32
I01
sg82
I01
sg15
I01
sbsg35
g297
sbsS'MessageLogger'
p305
g0
(g72
g2
Ntp306
Rp307
(dp308
g14
I00
sS'suppressInfo'
p309
g0
(g19
g20
(lp310
tp311
Rp312
(dp313
g14
I00
sg32
I00
sg15
I00
sg33
I1
sbsS'suppressDebug'
p314
g0
(g19
g20
(lp315
tp316
Rp317
(dp318
g14
I00
sg32
I00
sg15
I00
sg33
I1
sbsS'cout'
p319
g0
(g103
g2
Ntp320
Rp321
(dp322
g14
I00
sg32
I00
sS'placeholder'
p323
g0
(g122
g2
Ntp324
Rp325
(dp326
g14
I00
sg32
I00
sg82
I01
sg15
I00
sbsg15
I00
sg11
(lp327
g323
asbsg16
I10
sS'debugModules'
p328
g0
(g19
g20
(lp329
tp330
Rp331
(dp332
g14
I00
sg32
I00
sg15
I00
sg33
I1
sbsg35
g305
sS'fwkJobReports'
p333
g0
(g19
g20
(lp334
S'FrameworkJobReport'
p335
atp336
Rp337
(dp338
g14
I00
sg32
I00
sg15
I00
sg33
I1
sbsg11
(lp339
g309
aS'debugs'
p340
ag314
ag319
aS'cerr_stats'
p341
aS'warnings'
p342
aS'default'
p343
aS'statistics'
p344
aS'cerr'
p345
ag335
aS'suppressWarning'
p346
aS'errors'
p347
aS'destinations'
p348
ag328
aS'infos'
p349
aS'categories'
p350
ag333
asg344
g0
(g19
g20
(lp351
g341
atp352
Rp353
(dp354
g14
I00
sg32
I00
sg15
I00
sg33
I1
sbsg17
g18
sg348
g0
(g19
g20
(lp355
g342
ag347
ag349
ag340
ag319
ag345
atp356
Rp357
(dp358
g14
I00
sg32
I00
sg15
I00
sg33
I1
sbsg340
g0
(g103
g2
Ntp359
Rp360
(dp361
g14
I00
sg32
I00
sg323
g0
(g122
g2
Ntp362
Rp363
(dp364
g14
I00
sg32
I00
sg82
I01
sg15
I00
sbsg15
I00
sg11
(lp365
g323
asbsg342
g0
(g103
g2
Ntp366
Rp367
(dp368
g14
I00
sg32
I00
sg323
g0
(g122
g2
Ntp369
Rp370
(dp371
g14
I00
sg32
I00
sg82
I01
sg15
I00
sbsg15
I00
sg11
(lp372
g323
asbsg347
g0
(g103
g2
Ntp373
Rp374
(dp375
g14
I00
sg32
I00
sg323
g0
(g122
g2
Ntp376
Rp377
(dp378
g14
I00
sg32
I00
sg82
I01
sg15
I00
sbsg15
I00
sg11
(lp379
g323
asbsg335
g0
(g103
g2
Ntp380
Rp381
(dp382
g14
I00
sg32
I00
sg15
I00
sg343
g0
(g103
g2
Ntp383
Rp384
(dp385
g14
I00
sg32
I00
sS'limit'
p386
g0
(g108
g2
Ntp387
Rp388
(dp389
g14
I00
sg32
I00
sg82
I0
sg15
I00
sbsg15
I00
sg11
(lp390
g386
asbsS'FwkJob'
p391
g0
(g103
g2
Ntp392
Rp393
(dp394
g14
I00
sg32
I00
sg15
I00
sg386
g0
(g108
g2
Ntp395
Rp396
(dp397
g14
I00
sg32
I00
sg82
I10000000
sg15
I00
sbsg11
(lp398
S'optionalPSet'
p399
ag386
asg399
g0
(g122
g2
Ntp400
Rp401
(dp402
g14
I00
sg32
I00
sg82
I01
sg15
I00
sbsbsg11
(lp403
g343
ag399
ag391
asg399
g0
(g122
g2
Ntp404
Rp405
(dp406
g14
I00
sg32
I00
sg82
I01
sg15
I00
sbsbsg346
g0
(g19
g20
(lp407
tp408
Rp409
(dp410
g14
I00
sg32
I00
sg15
I00
sg33
I1
sbsg349
g0
(g103
g2
Ntp411
Rp412
(dp413
g14
I00
sg32
I00
sg15
I00
sS'Root_NoDictionary'
p414
g0
(g103
g2
Ntp415
Rp416
(dp417
g14
I00
sg32
I00
sg15
I00
sg386
g0
(g108
g2
Ntp418
Rp419
(dp420
g14
I00
sg32
I00
sg82
I0
sg15
I00
sbsg11
(lp421
g399
ag386
asg399
g0
(g122
g2
Ntp422
Rp423
(dp424
g14
I00
sg32
I00
sg82
I01
sg15
I00
sbsbsg11
(lp425
g399
ag414
ag323
asg399
g0
(g122
g2
Ntp426
Rp427
(dp428
g14
I00
sg32
I00
sg82
I01
sg15
I00
sbsg323
g0
(g122
g2
Ntp429
Rp430
(dp431
g14
I00
sg32
I00
sg82
I01
sg15
I00
sbsbsg350
g0
(g19
g20
(lp432
g391
aS'FwkReport'
p433
aS'FwkSummary'
p434
ag414
atp435
Rp436
(dp437
g14
I00
sg32
I00
sg15
I00
sg33
I1
sbsg15
I00
sg341
g0
(g103
g2
Ntp438
Rp439
(dp440
g14
I00
sg32
I00
sg15
I00
sg399
g0
(g122
g2
Ntp441
Rp442
(dp443
g14
I00
sg32
I00
sg82
I01
sg15
I00
sbsg11
(lp444
S'threshold'
p445
aS'output'
p446
ag399
asg445
g0
(g78
g2
Ntp447
Rp448
(dp449
g14
I00
sg32
I00
sg82
S'WARNING'
p450
sg15
I00
sbsg446
g0
(g78
g2
Ntp451
Rp452
(dp453
g14
I00
sg32
I00
sg82
g345
sg15
I00
sbsbsg343
g0
(g103
g2
Ntp454
Rp455
(dp456
g14
I00
sg32
I00
sg15
I00
sg11
(lp457
sbsg345
g0
(g103
g2
Ntp458
Rp459
(dp460
g14
I00
sg32
I00
sS'noTimeStamps'
p461
g0
(g122
g2
Ntp462
Rp463
(dp464
g14
I00
sg32
I00
sg82
I00
sg15
I00
sbsg433
g0
(g103
g2
Ntp465
Rp466
(dp467
g14
I00
sg32
I00
sg15
I01
sS'reportEvery'
p468
g0
(g108
g2
Ntp469
Rp470
(dp471
g14
I00
sg32
I00
sg82
I1000
sg15
I01
sbsg386
g0
(g108
g2
Ntp472
Rp473
(dp474
g14
I00
sg32
I00
sg82
I10000000
sg15
I00
sbsg11
(lp475
g468
ag399
ag386
asg399
g0
(g122
g2
Ntp476
Rp477
(dp478
g14
I00
sg32
I00
sg82
I01
sg15
I00
sbsbsg15
I00
sg343
g0
(g103
g2
Ntp479
Rp480
(dp481
g14
I00
sg32
I00
sg386
g0
(g108
g2
Ntp482
Rp483
(dp484
g14
I00
sg32
I00
sg82
I10000000
sg15
I00
sbsg15
I00
sg11
(lp485
g386
asbsg414
g0
(g103
g2
Ntp486
Rp487
(dp488
g14
I00
sg32
I00
sg15
I00
sg386
g0
(g108
g2
Ntp489
Rp490
(dp491
g14
I00
sg32
I00
sg82
I0
sg15
I00
sbsg11
(lp492
g399
ag386
asg399
g0
(g122
g2
Ntp493
Rp494
(dp495
g14
I00
sg32
I00
sg82
I01
sg15
I00
sbsbsS'INFO'
p496
g0
(g103
g2
Ntp497
Rp498
(dp499
g14
I00
sg32
I00
sg386
g0
(g108
g2
Ntp500
Rp501
(dp502
g14
I00
sg32
I00
sg82
I0
sg15
I00
sbsg15
I00
sg11
(lp503
g386
asbsg399
g0
(g122
g2
Ntp504
Rp505
(dp506
g14
I00
sg32
I00
sg82
I01
sg15
I00
sbsg391
g0
(g103
g2
Ntp507
Rp508
(dp509
g14
I00
sg32
I00
sg15
I00
sg386
g0
(g108
g2
Ntp510
Rp511
(dp512
g14
I00
sg32
I00
sg82
I0
sg15
I00
sbsg11
(lp513
g399
ag386
asg399
g0
(g122
g2
Ntp514
Rp515
(dp516
g14
I00
sg32
I00
sg82
I01
sg15
I00
sbsbsg434
g0
(g103
g2
Ntp517
Rp518
(dp519
g14
I00
sg32
I00
sg15
I00
sg468
g0
(g108
g2
Ntp520
Rp521
(dp522
g14
I00
sg32
I00
sg82
I1
sg15
I00
sbsg386
g0
(g108
g2
Ntp523
Rp524
(dp525
g14
I00
sg32
I00
sg82
I10000000
sg15
I00
sbsg11
(lp526
g468
ag399
ag386
asg399
g0
(g122
g2
Ntp527
Rp528
(dp529
g14
I00
sg32
I00
sg82
I01
sg15
I00
sbsbsg11
(lp530
g496
ag461
ag433
ag343
ag414
ag445
ag391
ag434
ag399
asg445
g0
(g78
g2
Ntp531
Rp532
(dp533
g14
I00
sg32
I00
sg82
g496
sg15
I00
sbsbsbsS'_Process__services'
p534
(dp535
g305
g307
sg71
g74
ssS'CastorGeometryFromDBEP'
p536
g0
(g7
g2
Ntp537
Rp538
(dp539
g11
(lp540
g101
asg14
I00
sg15
I00
sg16
I40
sg17
g18
sg34
g536
sg101
g0
(g122
g2
Ntp541
Rp542
(dp543
g14
I00
sg32
I01
sg82
I00
sg15
I00
sbsg35
g536
sbsS'trackerGeometryDB'
p544
g0
(g7
g2
Ntp545
Rp546
(dp547
g11
(lp548
g89
aS'fromDDD'
p549
ag101
aS'alignmentsLabel'
p550
asg14
I00
sg89
g0
(g78
g2
Ntp551
Rp552
(dp553
g14
I00
sg32
I01
sg82
g93
sg15
I00
sbsg15
I00
sg550
g0
(g78
g2
Ntp554
Rp555
(dp556
g14
I00
sg32
I01
sg82
g93
sg15
I00
sbsg17
g18
sg16
I40
sg34
g544
sg549
g0
(g122
g2
Ntp557
Rp558
(dp559
g14
I00
sg32
I01
sg82
I00
sg15
I00
sbsg101
g0
(g122
g2
Ntp560
Rp561
(dp562
g14
I00
sg32
I01
sg82
I01
sg15
I00
sbsg35
S'TrackerDigiGeometryESModule'
p563
sbsS'pTreeProducers'
p564
g0
(cFWCore.ParameterSet.SequenceTypes
Path
p565
g2
Ntp566
Rp567
(dp568
g14
I00
sg43
g0
(g44
g2
Ntp569
Rp570
(dp571
g48
(lp572
g41
ag0
(cFWCore.ParameterSet.Modules
EDAnalyzer
p573
g2
Ntp574
Rp575
(dp576
g11
(lp577
sg14
I00
sg15
I00
sg16
I32
sg17
g55
sg34
S'infoHisto'
p578
sg35
S'SaveCountHistoInTreeFile'
p579
sbasbsg15
I00
sg34
g564
sbsS'eegeom'
p580
g0
(g216
g2
Ntp581
Rp582
(dp583
g11
(lp584
S'iovIsRunNotTime'
p585
aS'recordName'
p586
aS'firstValid'
p587
asg14
I00
sg15
I00
sg16
I6
sg586
g0
(g78
g2
Ntp588
Rp589
(dp590
g14
I00
sg32
I01
sg82
S'EcalMappingRcd'
p591
sg15
I00
sbsg17
S'/cvmfs/cms.cern.ch/slc6_amd64_gcc493/cms/cmssw/CMSSW_7_6_3/python/Geometry/EcalMapping/EcalMappingRecord_cfi.py'
p592
sg587
g0
(cFWCore.ParameterSet.Types
vuint32
p593
g20
(lp594
I1
atp595
Rp596
(dp597
g14
I00
sg32
I01
sg15
I00
sbsg34
g580
sg585
g0
(g122
g2
Ntp598
Rp599
(dp600
g14
I00
sg32
I01
sg82
I01
sg15
I00
sbsg35
S'EmptyESSource'
p601
sbsS'_Process__vpsets'
p602
(dp603
sS'EcalTrigTowerConstituentsMapBuilder'
p604
g0
(g7
g2
Ntp605
Rp606
(dp607
g11
(lp608
S'MapFile'
p609
asg14
I00
sg15
I00
sg609
g0
(g78
g2
Ntp610
Rp611
(dp612
g14
I00
sg32
I00
sg82
S'Geometry/EcalMapping/data/EndCap_TTMap.txt'
p613
sg15
I00
sbsg17
g18
sg16
I40
sg34
g604
sg35
g604
sbsS'siStripBackPlaneCorrectionDepESProducer'
p614
g0
(g7
g2
Ntp615
Rp616
(dp617
g11
(lp618
S'LatencyRecord'
p619
aS'BackPlaneCorrectionDeconvMode'
p620
aS'BackPlaneCorrectionPeakMode'
p621
asg14
I00
sg15
I00
sg16
I40
sg17
g18
sg619
g0
(g103
g2
Ntp622
Rp623
(dp624
g14
I00
sg32
I01
sg15
I00
sS'label'
p625
g0
(g78
g2
Ntp626
Rp627
(dp628
g14
I00
sg32
I00
sg82
g93
sg15
I00
sbsg190
g0
(g78
g2
Ntp629
Rp630
(dp631
g14
I00
sg32
I01
sg82
S'SiStripLatencyRcd'
p632
sg15
I00
sbsg11
(lp633
g190
ag625
asbsg621
g0
(g103
g2
Ntp634
Rp635
(dp636
g14
I00
sg32
I01
sg15
I00
sg625
g0
(g78
g2
Ntp637
Rp638
(dp639
g14
I00
sg32
I00
sg82
S'peak'
p640
sg15
I00
sbsg190
g0
(g78
g2
Ntp641
Rp642
(dp643
g14
I00
sg32
I01
sg82
S'SiStripBackPlaneCorrectionRcd'
p644
sg15
I00
sbsg11
(lp645
g190
ag625
asbsg34
g614
sg620
g0
(g103
g2
Ntp646
Rp647
(dp648
g14
I00
sg32
I01
sg15
I00
sg625
g0
(g78
g2
Ntp649
Rp650
(dp651
g14
I00
sg32
I00
sg82
S'deconvolution'
p652
sg15
I00
sbsg190
g0
(g78
g2
Ntp653
Rp654
(dp655
g14
I00
sg32
I01
sg82
g644
sg15
I00
sbsg11
(lp656
g190
ag625
asbsg35
S'SiStripBackPlaneCorrectionDepESProducer'
p657
sbsS'JetTree'
p658
g0
(g573
g2
Ntp659
Rp660
(dp661
g11
(lp662
S'simpleEventInfo'
p663
aS'slimmedMCJetsPt10'
p664
asg14
I00
sg15
I01
sg16
I53
sg17
S'/afs/cern.ch/work/i/ivanp/CFF_SOFT/CMSSW_7_6_3/src/CommonFSQFramework/Skim/config/DiJets/treemaker_DiJets_76.py'
p665
sg664
g0
(g103
g2
Ntp666
Rp667
(dp668
g14
I00
sg32
I01
sS'input_gen'
p669
g0
(cFWCore.ParameterSet.Types
InputTag
p670
g2
Ntp671
Rp672
(dp673
g14
I00
sg32
I01
sg15
I00
sS'_InputTag__moduleLabel'
p674
S'slimmedGenJets'
p675
sS'_InputTag__processName'
p676
g93
sS'_InputTag__productInstance'
p677
g93
sbsg15
I00
sS'branchPrefix'
p678
g0
(g78
g2
Ntp679
Rp680
(dp681
g14
I00
sg32
I00
sg82
S'slimmedJetsPt10_'
p682
sg15
I00
sbsS'miniView'
p683
g0
(g78
g2
Ntp684
Rp685
(dp686
g14
I00
sg32
I01
sg82
S'JetMCSimpleView'
p687
sg15
I00
sbsg11
(lp688
g669
aS'minPt'
p689
ag678
ag683
aS'input'
p690
aS'payload'
p691
asg690
g0
(g670
g2
Ntp692
Rp693
(dp694
g14
I00
sg32
I01
sg15
I00
sg674
S'slimmedJets'
p695
sg676
g93
sg677
g93
sbsg691
g0
(g78
g2
Ntp696
Rp697
(dp698
g14
I00
sg32
I01
sg82
S'AK4PFchs'
p699
sg15
I00
sbsg689
g0
(g170
g2
Ntp700
Rp701
(dp702
g14
I00
sg32
I01
sg82
I10
sg15
I00
sbsbsg663
g0
(g103
g2
Ntp703
Rp704
(dp705
g14
I00
sg32
I01
sg15
I00
sg678
g0
(g78
g2
Ntp706
Rp707
(dp708
g14
I00
sg32
I00
sg82
S'event_'
p709
sg15
I00
sbsS'vtx_col'
p710
g0
(g670
g2
Ntp711
Rp712
(dp713
g14
I00
sg32
I01
sg15
I00
sg674
S'offlineSlimmedPrimaryVertices'
p714
sg676
g93
sg677
g93
sbsg683
g0
(g78
g2
Ntp715
Rp716
(dp717
g14
I00
sg32
I01
sg82
S'EventSimpleView'
p718
sg15
I00
sbsg11
(lp719
g678
ag683
ag710
asbsg34
g658
sg35
S'CFFTreeProducer'
p720
sbsS'schedule'
p721
g0
(cFWCore.ParameterSet.SequenceTypes
Schedule
p722
g20
(lp723
g0
(g565
g2
Ntp724
Rp725
(dp726
g14
I00
sg43
g0
(g44
g2
Ntp727
Rp728
(dp729
g48
(lp730
g165
asbsg15
I00
sg34
S'pUtil'
p731
sbag0
(g565
g2
Ntp732
Rp733
(dp734
g14
I00
sg43
g0
(g44
g2
Ntp735
Rp736
(dp737
g48
(lp738
g660
asbsg15
I00
sg34
S'pJetTree'
p739
sbag567
atp740
Rp741
(dp742
g14
I00
sg32
I01
sg15
I00
sbsS'_Process__esprefers'
p743
(dp744
S'es_prefer_hcalHardcode'
p745
g0
(cFWCore.ParameterSet.Modules
ESPrefer
p746
g2
Ntp747
Rp748
(dp749
g11
(lp750
sg14
I00
sg15
I00
sS'_targetLabel'
p751
S'es_hardcode'
p752
sg16
I73
sg17
g18
sg34
g745
sg35
S'HcalHardcodeCalibrations'
p753
sbssS'_Process__isStrict'
p754
I00
sS'_Process__outputmodules'
p755
(dp756
sS'_Process__analyzers'
p757
(dp758
g658
g660
sg578
g575
ssS'idealForDigiTrackerGeometry'
p759
g0
(g7
g2
Ntp760
Rp761
(dp762
g11
(lp763
g89
ag549
ag101
ag550
asg14
I00
sg89
g0
(g78
g2
Ntp764
Rp765
(dp766
g14
I00
sg32
I01
sg82
S'idealForDigi'
p767
sg15
I01
sbsg15
I01
sg550
g0
(g78
g2
Ntp768
Rp769
(dp770
g14
I00
sg32
I01
sg82
S'fakeForIdeal'
p771
sg15
I01
sbsg17
S'/cvmfs/cms.cern.ch/slc6_amd64_gcc493/cms/cmssw/CMSSW_7_6_3/python/Geometry/TrackerGeometryBuilder/idealForDigiTrackerGeometryDB_cff.py'
p772
sg16
I8
sg34
g759
sg549
g0
(g122
g2
Ntp773
Rp774
(dp775
g14
I00
sg32
I01
sg82
I00
sg15
I00
sbsg101
g0
(g122
g2
Ntp776
Rp777
(dp778
g14
I00
sg32
I01
sg82
I00
sg15
I01
sbsg35
g563
sbsS'_Process__looper'
p779
NsS'TMFDataForProv'
p780
g0
(g103
g2
Ntp781
Rp782
(dp783
g14
I00
sg32
I01
sg15
I00
sS'notes'
p784
g0
(g78
g2
Ntp785
Rp786
(dp787
g14
I00
sg32
I01
sg82
S'test'
p788
sg15
I00
sbsg11
(lp789
g784
asg34
g780
sbsS'_Process__paths'
p790
g0
(g284
g285
(dp791
g731
g725
sg564
g567
sg739
g733
stp792
Rp793
(dp794
g290
(lp795
g564
ag731
ag739
asbsS'_Process__subProcess'
p796
NsS'options'
p797
g0
(g103
g2
Ntp798
Rp799
(dp800
g14
I00
sg32
I00
sg15
I01
sS'wantSummary'
p801
g0
(g122
g2
Ntp802
Rp803
(dp804
g14
I00
sg32
I00
sg82
I00
sg15
I01
sbsg11
(lp805
g801
asg34
g797
sbsS'DTGeometryESModule'
p806
g0
(g7
g2
Ntp807
Rp808
(dp809
g11
(lp810
g89
ag549
ag101
ag550
asg14
I00
sg89
g0
(g78
g2
Ntp811
Rp812
(dp813
g14
I00
sg32
I01
sg82
g93
sg15
I00
sbsg15
I00
sg550
g0
(g78
g2
Ntp814
Rp815
(dp816
g14
I00
sg32
I01
sg82
g93
sg15
I00
sbsg17
g18
sg16
I40
sg34
g806
sg549
g0
(g122
g2
Ntp817
Rp818
(dp819
g14
I00
sg32
I01
sg82
I00
sg15
I00
sbsg101
g0
(g122
g2
Ntp820
Rp821
(dp822
g14
I00
sg32
I01
sg82
I01
sg15
I00
sbsg35
g806
sbsS'VolumeBasedMagneticFieldESProducer'
p823
g0
(g7
g2
Ntp824
Rp825
(dp826
g11
(lp827
S'valueOverride'
p828
aS'debugBuilder'
p829
ag625
asg14
I00
sg828
g0
(g108
g2
Ntp830
Rp831
(dp832
g14
I00
sg32
I01
sg82
I-1
sg15
I00
sbsg16
I40
sg17
g18
sg625
g0
(g78
g2
Ntp833
Rp834
(dp835
g14
I00
sg32
I00
sg82
g93
sg15
I00
sbsg829
g0
(g122
g2
Ntp836
Rp837
(dp838
g14
I00
sg32
I00
sg82
I00
sg15
I00
sbsg34
g823
sg35
S'VolumeBasedMagneticFieldESProducerFromDB'
p839
sg15
I00
sbsS'CaloTopologyBuilder'
p840
g0
(g7
g2
Ntp841
Rp842
(dp843
g11
(lp844
sg14
I00
sg15
I00
sg16
I40
sg17
g18
sg34
g840
sg35
g840
sbsg731
g725
sS'SiStripRecHitMatcherESProducer'
p845
g0
(g7
g2
Ntp846
Rp847
(dp848
g11
(lp849
S'PreFilter'
p850
aS'ComponentName'
p851
aS'NSigmaInside'
p852
asg14
I00
sg15
I00
sg17
g18
sg851
g0
(g78
g2
Ntp853
Rp854
(dp855
g14
I00
sg32
I01
sg82
S'StandardMatcher'
p856
sg15
I00
sbsg850
g0
(g122
g2
Ntp857
Rp858
(dp859
g14
I00
sg32
I01
sg82
I00
sg15
I00
sbsg16
I40
sg852
g0
(g170
g2
Ntp860
Rp861
(dp862
g14
I00
sg32
I01
sg82
F3.0
sg15
I00
sbsg34
g845
sg35
g845
sbsS'_Process__psets'
p863
(dp864
S'maxEvents'
p865
g0
(g103
g2
Ntp866
Rp867
(dp868
g14
I00
sg32
I00
sg15
I00
sg11
(lp869
g690
asg34
g865
sg690
g0
(g108
g2
Ntp870
Rp871
(dp872
g14
I00
sg32
I00
sg82
I1000
sg15
I00
sbsbsg780
g782
sg126
g128
sg797
g799
sS'CondDBSetup'
p873
g0
(g103
g2
Ntp874
Rp875
(dp876
g14
I00
sg32
I01
sg15
I00
sg221
g0
(g103
g2
Ntp877
Rp878
(dp879
g14
I00
sg32
I01
sg241
g0
(g108
g2
Ntp880
Rp881
(dp882
g14
I00
sg32
I00
sg82
I10
sg15
I00
sbsg237
g0
(g78
g2
Ntp883
Rp884
(dp885
g14
I00
sg32
I00
sg82
g93
sg15
I00
sbsg15
I00
sg245
g0
(g108
g2
Ntp886
Rp887
(dp888
g14
I00
sg32
I00
sg82
I10
sg15
I00
sbsg249
g0
(g108
g2
Ntp889
Rp890
(dp891
g14
I00
sg32
I00
sg82
I0
sg15
I00
sbsg253
g0
(g122
g2
Ntp892
Rp893
(dp894
g14
I00
sg32
I00
sg82
I00
sg15
I00
sbsg257
g0
(g122
g2
Ntp895
Rp896
(dp897
g14
I00
sg32
I00
sg82
I01
sg15
I00
sbsg261
g0
(g122
g2
Ntp898
Rp899
(dp900
g14
I00
sg32
I00
sg82
I00
sg15
I00
sbsg11
(lp901
g237
ag261
ag245
ag249
ag253
ag257
ag266
ag267
ag268
ag241
asg267
g0
(g108
g2
Ntp902
Rp903
(dp904
g14
I00
sg32
I00
sg82
I60
sg15
I00
sbsg268
g0
(g108
g2
Ntp905
Rp906
(dp907
g14
I00
sg32
I00
sg82
I0
sg15
I00
sbsg266
g0
(g108
g2
Ntp908
Rp909
(dp910
g14
I00
sg32
I00
sg82
I60
sg15
I00
sbsbsg11
(lp911
g221
asg34
g873
sbssS'_Process__essources'
p912
(dp913
g752
g0
(g216
g2
Ntp914
Rp915
(dp916
g11
(lp917
g126
aS'HERecalibration'
p918
ag222
aS'GainWidthsForTrigPrims'
p919
aS'HEreCalibCutoff'
p920
aS'HFRecalibration'
p921
aS'iLumi'
p922
ag102
asg14
I00
sg126
g128
sg15
I01
sg16
I19
sg918
g0
(g122
g2
Ntp923
Rp924
(dp925
g14
I00
sg32
I01
sg82
I00
sg15
I00
sbsg102
g0
(g103
g2
Ntp926
Rp927
(dp928
g14
I00
sg32
I01
sg15
I00
sg107
g0
(g108
g2
Ntp929
Rp930
(dp931
g14
I00
sg32
I01
sg82
I3
sg15
I00
sbsg112
g0
(g108
g2
Ntp932
Rp933
(dp934
g14
I00
sg32
I01
sg82
I2
sg15
I00
sbsg11
(lp935
g107
ag112
ag117
asg117
g0
(g78
g2
Ntp936
Rp937
(dp938
g14
I00
sg32
I01
sg82
g121
sg15
I00
sbsbsg222
g0
(g19
g20
(lp939
S'GainWidths'
p940
atp941
Rp942
(dp943
g14
I00
sg32
I00
sg15
I00
sg33
I1
sbsg919
g0
(g122
g2
Ntp944
Rp945
(dp946
g14
I00
sg32
I01
sg82
I00
sg15
I00
sbsg920
g0
(g170
g2
Ntp947
Rp948
(dp949
g14
I00
sg32
I01
sg82
F20.0
sg15
I00
sbsg921
g0
(g122
g2
Ntp950
Rp951
(dp952
g14
I00
sg32
I01
sg82
I00
sg15
I00
sbsg17
S'/cvmfs/cms.cern.ch/slc6_amd64_gcc493/cms/cmssw/CMSSW_7_6_3/python/CalibCalorimetry/HcalPlugins/Hcal_Conditions_forGlobalTag_cff.py'
p953
sg34
g752
sg922
g0
(g170
g2
Ntp954
Rp955
(dp956
g14
I00
sg32
I01
sg82
F-1.0
sg15
I00
sbsg35
g753
sbsg580
g582
sg215
g218
ssg70
g61
sg38
g41
sg865
g867
sS'CSCGeometryESModule'
p957
g0
(g7
g2
Ntp958
Rp959
(dp960
g11
(lp961
g89
aS'useDDD'
p962
aS'debugV'
p963
aS'useGangedStripsInME1a'
p964
ag550
aS'useOnlyWiresInME1a'
p965
aS'useRealWireGeometry'
p966
aS'useCentreTIOffsets'
p967
ag101
asg14
I00
sg89
g0
(g78
g2
Ntp968
Rp969
(dp970
g14
I00
sg32
I01
sg82
g93
sg15
I00
sbsg15
I00
sg963
g0
(g122
g2
Ntp971
Rp972
(dp973
g14
I00
sg32
I00
sg82
I00
sg15
I00
sbsg17
g18
sg964
g0
(g122
g2
Ntp974
Rp975
(dp976
g14
I00
sg32
I01
sg82
I01
sg15
I00
sbsg550
g0
(g78
g2
Ntp977
Rp978
(dp979
g14
I00
sg32
I01
sg82
g93
sg15
I00
sbsg965
g0
(g122
g2
Ntp980
Rp981
(dp982
g14
I00
sg32
I01
sg82
I00
sg15
I00
sbsg962
g0
(g122
g2
Ntp983
Rp984
(dp985
g14
I00
sg32
I01
sg82
I00
sg15
I00
sbsg16
I40
sg967
g0
(g122
g2
Ntp986
Rp987
(dp988
g14
I00
sg32
I01
sg82
I00
sg15
I00
sbsg34
g957
sg966
g0
(g122
g2
Ntp989
Rp990
(dp991
g14
I00
sg32
I01
sg82
I01
sg15
I00
sbsg101
g0
(g122
g2
Ntp992
Rp993
(dp994
g14
I00
sg32
I01
sg82
I01
sg15
I00
sbsg35
g957
sbsS'EcalBarrelGeometryFromDBEP'
p995
g0
(g7
g2
Ntp996
Rp997
(dp998
g11
(lp999
g101
asg14
I00
sg15
I01
sg16
I40
sg17
g18
sg34
g995
sg101
g0
(g122
g2
Ntp1000
Rp1001
(dp1002
g14
I00
sg32
I01
sg82
I01
sg15
I01
sbsg35
g995
sbsS'trackerNumberingGeometryDB'
p1003
g0
(g7
g2
Ntp1004
Rp1005
(dp1006
g11
(lp1007
g89
ag549
asg14
I00
sg89
g0
(g78
g2
Ntp1008
Rp1009
(dp1010
g14
I00
sg32
I01
sg82
g93
sg15
I00
sbsg15
I00
sg16
I40
sg17
g18
sg34
g1003
sg549
g0
(g122
g2
Ntp1011
Rp1012
(dp1013
g14
I00
sg32
I01
sg82
I00
sg15
I00
sbsg35
S'TrackerGeometricDetESModule'
p1014
sbsS'_Process__name'
p1015
S'Treemaker'
p1016
sg739
g733
sg752
g915
sS'_cloneToObjectDict'
p1017
(dp1018
I14377808
g0
(g7
g2
Ntp1019
Rp1020
(dp1021
g11
(lp1022
g89
aS'PrintDebugOutput'
p1023
aS'ThresholdForReducedGranularity'
p1024
aS'UseEmptyRunInfo'
p1025
aS'ReduceGranularity'
p1026
ag184
asg14
I00
sg89
g0
(g78
g2
Ntp1027
Rp1028
(dp1029
g14
I00
sg32
I01
sg82
g93
sg15
I00
sbsg15
I01
sg16
I40
sg17
g18
sg1024
g0
(g170
g2
Ntp1030
Rp1031
(dp1032
g14
I00
sg32
I01
sg82
F0.3
sg15
I00
sbsg34
S'siStripQualityESProducer'
p1033
sg1025
g0
(g122
g2
Ntp1034
Rp1035
(dp1036
g14
I00
sg32
I01
sg82
I00
sg15
I00
sbsg1026
g0
(g122
g2
Ntp1037
Rp1038
(dp1039
g14
I00
sg32
I01
sg82
I00
sg15
I00
sbsg184
g0
(g185
g20
(lp1040
g0
(g103
g2
Ntp1041
Rp1042
(dp1043
g14
I00
sg32
I01
sg15
I00
sg190
g0
(g78
g2
Ntp1044
Rp1045
(dp1046
g14
I00
sg32
I01
sg82
S'SiStripDetVOffRcd'
p1047
sg15
I00
sbsg195
g0
(g78
g2
Ntp1048
Rp1049
(dp1050
g14
I00
sg32
I01
sg82
g93
sg15
I00
sbsg11
(lp1051
g190
ag195
asbag0
(g103
g2
Ntp1052
Rp1053
(dp1054
g14
I00
sg32
I01
sg15
I00
sg190
g0
(g78
g2
Ntp1055
Rp1056
(dp1057
g14
I00
sg32
I01
sg82
S'SiStripDetCablingRcd'
p1058
sg15
I00
sbsg195
g0
(g78
g2
Ntp1059
Rp1060
(dp1061
g14
I00
sg32
I01
sg82
g93
sg15
I00
sbsg11
(lp1062
g190
ag195
asbag0
(g103
g2
Ntp1063
Rp1064
(dp1065
g14
I00
sg32
I01
sg15
I00
sg190
g0
(g78
g2
Ntp1066
Rp1067
(dp1068
g14
I00
sg32
I01
sg82
S'RunInfoRcd'
p1069
sg15
I00
sbsg195
g0
(g78
g2
Ntp1070
Rp1071
(dp1072
g14
I00
sg32
I01
sg82
g93
sg15
I00
sbsg11
(lp1073
g190
ag195
asbag0
(g103
g2
Ntp1074
Rp1075
(dp1076
g14
I00
sg32
I01
sg15
I00
sg190
g0
(g78
g2
Ntp1077
Rp1078
(dp1079
g14
I00
sg32
I01
sg82
S'SiStripBadChannelRcd'
p1080
sg15
I00
sbsg195
g0
(g78
g2
Ntp1081
Rp1082
(dp1083
g14
I00
sg32
I01
sg82
g93
sg15
I00
sbsg11
(lp1084
g190
ag195
asbag0
(g103
g2
Ntp1085
Rp1086
(dp1087
g14
I00
sg32
I01
sg15
I00
sg190
g0
(g78
g2
Ntp1088
Rp1089
(dp1090
g14
I00
sg32
I01
sg82
S'SiStripBadFiberRcd'
p1091
sg15
I00
sbsg195
g0
(g78
g2
Ntp1092
Rp1093
(dp1094
g14
I00
sg32
I01
sg82
g93
sg15
I00
sbsg11
(lp1095
g190
ag195
asbag0
(g103
g2
Ntp1096
Rp1097
(dp1098
g14
I00
sg32
I01
sg15
I00
sg190
g0
(g78
g2
Ntp1099
Rp1100
(dp1101
g14
I00
sg32
I01
sg82
S'SiStripBadModuleRcd'
p1102
sg15
I00
sbsg195
g0
(g78
g2
Ntp1103
Rp1104
(dp1105
g14
I00
sg32
I01
sg82
g93
sg15
I00
sbsg11
(lp1106
g190
ag195
asbag0
(g103
g2
Ntp1107
Rp1108
(dp1109
g14
I00
sg32
I01
sg15
I00
sg190
g0
(g78
g2
Ntp1110
Rp1111
(dp1112
g14
I00
sg32
I01
sg82
S'SiStripBadStripRcd'
p1113
sg15
I00
sbsg195
g0
(g78
g2
Ntp1114
Rp1115
(dp1116
g14
I00
sg32
I01
sg82
g93
sg15
I00
sbsg11
(lp1117
g190
ag195
asbatp1118
Rp1119
(dp1120
g14
I00
sg32
I01
sg15
I00
sg33
I1
sbsg35
S'SiStripQualityESProducer'
p1121
sg1023
g0
(g122
g2
Ntp1122
Rp1123
(dp1124
g14
I00
sg32
I01
sg82
I00
sg15
I00
sbsbsI14267344
g0
(g7
g2
Ntp1125
Rp1126
(dp1127
g11
(lp1128
S'Exclude'
p1129
ag89
ag102
asg14
I00
sg89
g0
(g78
g2
Ntp1130
Rp1131
(dp1132
g14
I00
sg32
I01
sg82
g93
sg15
I00
sbsg15
I00
sg16
I40
sg17
g18
sg102
g0
(g103
g2
Ntp1133
Rp1134
(dp1135
g14
I00
sg32
I01
sg15
I00
sg107
g0
(g108
g2
Ntp1136
Rp1137
(dp1138
g14
I00
sg32
I01
sg82
I3
sg15
I00
sbsg112
g0
(g108
g2
Ntp1139
Rp1140
(dp1141
g14
I00
sg32
I01
sg82
I2
sg15
I00
sbsg11
(lp1142
g107
ag112
ag117
asg117
g0
(g78
g2
Ntp1143
Rp1144
(dp1145
g14
I00
sg32
I01
sg82
S'HcalTopologyMode::LHC'
p1146
sg15
I00
sbsbsg34
S'hcalTopologyIdeal'
p1147
sg1129
g0
(g78
g2
Ntp1148
Rp1149
(dp1150
g14
I00
sg32
I00
sg82
g93
sg15
I00
sbsg35
S'HcalTopologyIdealEP'
p1151
sbsI14250960
g294
sI14308432
g0
(g7
g2
Ntp1152
Rp1153
(dp1154
g11
(lp1155
g89
asg14
I00
sg89
g0
(g78
g2
Ntp1156
Rp1157
(dp1158
g14
I00
sg32
I01
sg82
g771
sg15
I01
sbsg15
I01
sg16
I5
sg17
S'/cvmfs/cms.cern.ch/slc6_amd64_gcc493/cms/cmssw/CMSSW_7_6_3/python/Alignment/CommonAlignmentProducer/fakeForIdealAlignmentProducer_cfi.py'
p1159
sg34
S'fakeForIdealAlignment'
p1160
sg35
S'FakeAlignmentProducer'
p1161
sbsI14333072
g128
sI14311376
g0
(g7
g2
Ntp1162
Rp1163
(dp1164
g11
(lp1165
sg14
I00
sg15
I00
sg16
I40
sg17
g18
sg34
S'EcalLaserCorrectionService'
p1166
sg35
g1166
sbsI14311248
g218
sI14234000
g799
sI14267792
g0
(g7
g2
Ntp1167
Rp1168
(dp1169
g11
(lp1170
sg14
I00
sg15
I00
sg16
I40
sg17
g18
sg34
S'CaloTowerTopologyEP'
p1171
sg35
g1171
sbsI14362064
g0
(g7
g2
Ntp1172
Rp1173
(dp1174
g11
(lp1175
S'ComponentType'
p1176
ag851
aS'parameters'
p1177
asg14
I00
sg15
I00
sg1177
g0
(g103
g2
Ntp1178
Rp1179
(dp1180
g14
I00
sg32
I01
sg15
I00
sg11
(lp1181
sbsg16
I40
sg851
g0
(g78
g2
Ntp1182
Rp1183
(dp1184
g14
I00
sg32
I01
sg82
S'stripCPE'
p1185
sg15
I00
sbsg1176
g0
(g78
g2
Ntp1186
Rp1187
(dp1188
g14
I00
sg32
I01
sg82
S'SimpleStripCPE'
p1189
sg15
I00
sbsg17
g18
sg34
S'stripCPEESProducer'
p1190
sg35
S'StripCPEESProducer'
p1191
sbsI14363536
g847
sI14250384
g546
sI14362192
g0
(g7
g2
Ntp1192
Rp1193
(dp1194
g11
(lp1195
g1176
ag851
ag1177
asg14
I00
sg15
I01
sg1177
g0
(g103
g2
Ntp1196
Rp1197
(dp1198
g14
I00
sg32
I01
sS'maxChgOneMIP'
p1199
g0
(g170
g2
Ntp1200
Rp1201
(dp1202
g14
I00
sg32
I01
sg82
F6000.0
sg15
I00
sbsS'mLC_P2'
p1203
g0
(g170
g2
Ntp1204
Rp1205
(dp1206
g14
I00
sg32
I01
sg82
F0.3
sg15
I00
sbsS'mLC_P1'
p1207
g0
(g170
g2
Ntp1208
Rp1209
(dp1210
g14
I00
sg32
I01
sg82
F0.618
sg15
I00
sbsS'mLC_P0'
p1211
g0
(g170
g2
Ntp1212
Rp1213
(dp1214
g14
I00
sg32
I01
sg82
F-0.326
sg15
I00
sbsS'useLegacyError'
p1215
g0
(g122
g2
Ntp1216
Rp1217
(dp1218
g14
I00
sg32
I01
sg82
I00
sg15
I00
sbsS'mTIB_P1'
p1219
g0
(g170
g2
Ntp1220
Rp1221
(dp1222
g14
I00
sg32
I01
sg82
F0.202
sg15
I00
sbsS'mTEC_P1'
p1223
g0
(g170
g2
Ntp1224
Rp1225
(dp1226
g14
I00
sg32
I01
sg82
F0.471
sg15
I00
sbsS'mTEC_P0'
p1227
g0
(g170
g2
Ntp1228
Rp1229
(dp1230
g14
I00
sg32
I01
sg82
F-1.885
sg15
I00
sbsS'mTOB_P0'
p1231
g0
(g170
g2
Ntp1232
Rp1233
(dp1234
g14
I00
sg32
I01
sg82
F-1.026
sg15
I00
sbsS'mTOB_P1'
p1235
g0
(g170
g2
Ntp1236
Rp1237
(dp1238
g14
I00
sg32
I01
sg82
F0.253
sg15
I00
sbsS'mTIB_P0'
p1239
g0
(g170
g2
Ntp1240
Rp1241
(dp1242
g14
I00
sg32
I01
sg82
F-0.742
sg15
I00
sbsg11
(lp1243
g1199
ag1203
ag1207
ag1211
ag1215
ag1223
ag1227
ag1231
ag1235
ag1239
ag1219
aS'mTID_P0'
p1244
aS'mTID_P1'
p1245
asg1244
g0
(g170
g2
Ntp1246
Rp1247
(dp1248
g14
I00
sg32
I01
sg82
F-1.427
sg15
I00
sbsg1245
g0
(g170
g2
Ntp1249
Rp1250
(dp1251
g14
I00
sg32
I01
sg82
F0.433
sg15
I00
sbsg15
I00
sbsg16
I4
sg851
g0
(g78
g2
Ntp1252
Rp1253
(dp1254
g14
I00
sg32
I01
sg82
S'StripCPEfromTrackAngle'
p1255
sg15
I00
sbsg1176
g0
(g78
g2
Ntp1256
Rp1257
(dp1258
g14
I00
sg32
I01
sg82
g1255
sg15
I00
sbsg17
S'/cvmfs/cms.cern.ch/slc6_amd64_gcc493/cms/cmssw/CMSSW_7_6_3/python/RecoLocalTracker/SiStripRecHitConverter/StripCPEfromTrackAngle_cfi.py'
p1259
sg34
S'StripCPEfromTrackAngleESProducer'
p1260
sg35
g1191
sbsI14251344
g842
sI14333648
g915
sI14251792
g9
sI14402704
g575
sI14268432
g0
(g7
g2
Ntp1261
Rp1262
(dp1263
g11
(lp1264
g101
asg14
I00
sg15
I00
sg16
I40
sg17
g18
sg34
S'ZdcGeometryFromDBEP'
p1265
sg101
g0
(g122
g2
Ntp1266
Rp1267
(dp1268
g14
I00
sg32
I01
sg82
I00
sg15
I00
sbsg35
g1265
sbsI14403344
g567
sI14403664
g41
sI14311120
g875
sI14252176
g299
sI14364496
g181
sI14252304
g0
(g7
g2
Ntp1269
Rp1270
(dp1271
g11
(lp1272
g101
asg14
I00
sg15
I01
sg16
I40
sg17
g18
sg34
S'EcalPreshowerGeometryFromDBEP'
p1273
sg101
g0
(g122
g2
Ntp1274
Rp1275
(dp1276
g14
I00
sg32
I01
sg82
I01
sg15
I01
sbsg35
g1273
sbsI14268752
g538
sI14403600
g52
sI14252432
g997
sI14404176
g782
sI14269072
g606
sI14404304
g660
sI14333712
g748
sI14332880
g0
(g7
g2
Ntp1277
Rp1278
(dp1279
g11
(lp1280
S'file'
p1281
aS'dump'
p1282
asg14
I00
sg15
I00
sg1282
g0
(g19
g20
(lp1283
g93
atp1284
Rp1285
(dp1286
g14
I00
sg32
I00
sg15
I00
sg33
I1
sbsg16
I40
sg17
g18
sg1281
g0
(g78
g2
Ntp1287
Rp1288
(dp1289
g14
I00
sg32
I00
sg82
g93
sg15
I00
sbsg34
S'hcal_db_producer'
p1290
sg35
S'HcalDbProducer'
p1291
sbsI14236560
g0
(g7
g2
Ntp1292
Rp1293
(dp1294
g11
(lp1295
g962
aS'compatibiltyWith11'
p1296
asg14
I00
sg15
I00
sg16
I40
sg17
g18
sg962
g0
(g122
g2
Ntp1297
Rp1298
(dp1299
g14
I00
sg32
I00
sg82
I00
sg15
I00
sbsg1296
g0
(g122
g2
Ntp1300
Rp1301
(dp1302
g14
I00
sg32
I00
sg82
I01
sg15
I00
sbsg34
S'RPCGeometryESModule'
p1303
sg35
g1303
sbsI14253008
g0
(g7
g2
Ntp1304
Rp1305
(dp1306
g11
(lp1307
g101
ag102
asg14
I00
sg15
I01
sg16
I40
sg17
g18
sg102
g0
(g103
g2
Ntp1308
Rp1309
(dp1310
g14
I00
sg32
I01
sg15
I00
sg107
g0
(g108
g2
Ntp1311
Rp1312
(dp1313
g14
I00
sg32
I01
sg82
I3
sg15
I00
sbsg112
g0
(g108
g2
Ntp1314
Rp1315
(dp1316
g14
I00
sg32
I01
sg82
I2
sg15
I00
sbsg11
(lp1317
g107
ag112
ag117
asg117
g0
(g78
g2
Ntp1318
Rp1319
(dp1320
g14
I00
sg32
I01
sg82
g121
sg15
I00
sbsbsg34
S'HcalGeometryFromDBEP'
p1321
sg101
g0
(g122
g2
Ntp1322
Rp1323
(dp1324
g14
I00
sg32
I01
sg82
I01
sg15
I01
sbsg35
g1321
sbsI14363664
g0
(g7
g2
Ntp1325
Rp1326
(dp1327
g11
(lp1328
sg14
I00
sg15
I00
sg16
I40
sg17
g18
sg34
S'sistripconn'
p1329
sg35
S'SiStripConnectivity'
p1330
sbsI14269520
g0
(g7
g2
Ntp1331
Rp1332
(dp1333
g11
(lp1334
sg14
I00
sg15
I00
sg16
I40
sg17
g18
sg34
S'EcalElectronicsMappingBuilder'
p1335
sg35
g1335
sbsI14403792
g0
(g565
g2
Ntp1336
Rp1337
(dp1338
g14
I00
sg43
g0
(g44
g2
Ntp1339
Rp1340
(dp1341
g48
(lp1342
g165
asbsg15
I00
sg34
NsbsI14269776
g582
sI14402192
g0
(g7
g2
Ntp1343
Rp1344
(dp1345
g11
(lp1346
S'version'
p1347
ag828
ag625
asg14
I00
sg15
I01
sg16
I40
sg17
g18
sg625
g0
(g78
g2
Ntp1348
Rp1349
(dp1350
g14
I00
sg32
I00
sg82
S'ParabolicMf'
p1351
sg15
I01
sbsg1347
g0
(g78
g2
Ntp1352
Rp1353
(dp1354
g14
I00
sg32
I01
sg82
S'Parabolic'
p1355
sg15
I00
sbsg828
g0
(g108
g2
Ntp1356
Rp1357
(dp1358
g14
I00
sg32
I01
sg82
I-1
sg15
I00
sbsg34
S'ParabolicParametrizedMagneticFieldProducer'
p1359
sg35
S'AutoParametrizedMagneticFieldProducer'
p1360
sbsI14253520
g0
(g7
g2
Ntp1361
Rp1362
(dp1363
g11
(lp1364
sg14
I00
sg15
I00
sg16
I40
sg17
g18
sg34
S'HcalAlignmentEP'
p1365
sg35
g1365
sbsI14237200
g808
sI14403856
g725
sI14364368
g0
(g7
g2
Ntp1366
Rp1367
(dp1368
g11
(lp1369
sg14
I00
sg15
I00
sg16
I40
sg17
g18
sg34
S'CastorDbProducer'
p1370
sg35
g1370
sbsI14335504
g0
(g7
g2
Ntp1371
Rp1372
(dp1373
g11
(lp1374
S'printDebug'
p1375
ag89
aS'APVGain'
p1376
aS'AutomaticNormalization'
p1377
asg14
I00
sg89
g0
(g78
g2
Ntp1378
Rp1379
(dp1380
g14
I00
sg32
I01
sg82
g93
sg15
I00
sbsg15
I00
sg1377
g0
(g122
g2
Ntp1381
Rp1382
(dp1383
g14
I00
sg32
I01
sg82
I00
sg15
I00
sbsg16
I40
sg1375
g0
(g122
g2
Ntp1384
Rp1385
(dp1386
g14
I00
sg32
I00
sg82
I00
sg15
I00
sbsg17
g18
sg1376
g0
(g185
g20
(lp1387
g0
(g103
g2
Ntp1388
Rp1389
(dp1390
g14
I00
sg32
I01
sg15
I00
sS'Label'
p1391
g0
(g78
g2
Ntp1392
Rp1393
(dp1394
g14
I00
sg32
I00
sg82
g93
sg15
I00
sbsS'Record'
p1395
g0
(g78
g2
Ntp1396
Rp1397
(dp1398
g14
I00
sg32
I01
sg82
S'SiStripApvGainRcd'
p1399
sg15
I00
sbsS'NormalizationFactor'
p1400
g0
(g170
g2
Ntp1401
Rp1402
(dp1403
g14
I00
sg32
I00
sg82
F1.0
sg15
I00
sbsg11
(lp1404
g1395
ag1400
ag1391
asbag0
(g103
g2
Ntp1405
Rp1406
(dp1407
g14
I00
sg32
I01
sg15
I00
sg1391
g0
(g78
g2
Ntp1408
Rp1409
(dp1410
g14
I00
sg32
I00
sg82
g93
sg15
I00
sbsg1395
g0
(g78
g2
Ntp1411
Rp1412
(dp1413
g14
I00
sg32
I01
sg82
S'SiStripApvGain2Rcd'
p1414
sg15
I00
sbsg1400
g0
(g170
g2
Ntp1415
Rp1416
(dp1417
g14
I00
sg32
I00
sg82
F1.0
sg15
I00
sbsg11
(lp1418
g1395
ag1400
ag1391
asbatp1419
Rp1420
(dp1421
g14
I00
sg32
I01
sg15
I00
sg33
I1
sbsg34
S'siStripGainESProducer'
p1422
sg35
S'SiStripGainESProducer'
p1423
sbsI14270288
g86
sI14235536
g959
sI14237584
g1005
sI14254032
g98
sI14308688
g0
(g7
g2
Ntp1424
Rp1425
(dp1426
g11
(lp1427
g89
ag962
ag963
ag964
ag550
ag965
ag966
ag967
ag101
asg14
I00
sg89
g0
(g78
g2
Ntp1428
Rp1429
(dp1430
g14
I00
sg32
I01
sg82
g767
sg15
I01
sbsg15
I01
sg963
g0
(g122
g2
Ntp1431
Rp1432
(dp1433
g14
I00
sg32
I00
sg82
I00
sg15
I00
sbsg17
S'/cvmfs/cms.cern.ch/slc6_amd64_gcc493/cms/cmssw/CMSSW_7_6_3/python/Geometry/CSCGeometryBuilder/idealForDigiCscGeometryDB_cff.py'
p1434
sg964
g0
(g122
g2
Ntp1435
Rp1436
(dp1437
g14
I00
sg32
I01
sg82
I01
sg15
I00
sbsg550
g0
(g78
g2
Ntp1438
Rp1439
(dp1440
g14
I00
sg32
I01
sg82
g771
sg15
I01
sbsg965
g0
(g122
g2
Ntp1441
Rp1442
(dp1443
g14
I00
sg32
I01
sg82
I00
sg15
I00
sbsg962
g0
(g122
g2
Ntp1444
Rp1445
(dp1446
g14
I00
sg32
I01
sg82
I00
sg15
I00
sbsg16
I8
sg967
g0
(g122
g2
Ntp1447
Rp1448
(dp1449
g14
I00
sg32
I01
sg82
I00
sg15
I00
sbsg34
S'idealForDigiCSCGeometry'
p1450
sg966
g0
(g122
g2
Ntp1451
Rp1452
(dp1453
g14
I00
sg32
I01
sg82
I01
sg15
I00
sbsg101
g0
(g122
g2
Ntp1454
Rp1455
(dp1456
g14
I00
sg32
I01
sg82
I00
sg15
I01
sbsg35
g957
sbsI14309520
g0
(g7
g2
Ntp1457
Rp1458
(dp1459
g11
(lp1460
g89
ag549
ag101
ag550
asg14
I00
sg89
g0
(g78
g2
Ntp1461
Rp1462
(dp1463
g14
I00
sg32
I01
sg82
g767
sg15
I01
sbsg15
I01
sg550
g0
(g78
g2
Ntp1464
Rp1465
(dp1466
g14
I00
sg32
I01
sg82
g771
sg15
I01
sbsg17
S'/cvmfs/cms.cern.ch/slc6_amd64_gcc493/cms/cmssw/CMSSW_7_6_3/python/Geometry/DTGeometryBuilder/idealForDigiDtGeometryDB_cff.py'
p1467
sg16
I8
sg34
S'idealForDigiDTGeometry'
p1468
sg549
g0
(g122
g2
Ntp1469
Rp1470
(dp1471
g14
I00
sg32
I01
sg82
I00
sg15
I00
sbsg101
g0
(g122
g2
Ntp1472
Rp1473
(dp1474
g14
I00
sg32
I01
sg82
I00
sg15
I01
sbsg35
g806
sbsI14401680
g825
sI14307536
g0
(g7
g2
Ntp1475
Rp1476
(dp1477
g11
(lp1478
g89
asg14
I00
sg89
g0
(g78
g2
Ntp1479
Rp1480
(dp1481
g14
I00
sg32
I01
sg82
g93
sg15
I00
sbsg15
I00
sg16
I40
sg17
g18
sg34
S'hcalDDDRecConstants'
p1482
sg35
S'HcalDDDRecConstantsESModule'
p1483
sbsI14233872
g867
sI14307728
g761
sI14431696
g733
sI14361040
g0
(g7
g2
Ntp1484
Rp1485
(dp1486
g11
(lp1487
g619
aS'LorentzAngleDeconvMode'
p1488
aS'LorentzAnglePeakMode'
p1489
asg14
I00
sg15
I00
sg16
I40
sg17
g18
sg619
g0
(g103
g2
Ntp1490
Rp1491
(dp1492
g14
I00
sg32
I01
sg15
I00
sg625
g0
(g78
g2
Ntp1493
Rp1494
(dp1495
g14
I00
sg32
I00
sg82
g93
sg15
I00
sbsg190
g0
(g78
g2
Ntp1496
Rp1497
(dp1498
g14
I00
sg32
I01
sg82
g632
sg15
I00
sbsg11
(lp1499
g190
ag625
asbsg34
S'siStripLorentzAngleDepESProducer'
p1500
sg1489
g0
(g103
g2
Ntp1501
Rp1502
(dp1503
g14
I00
sg32
I01
sg15
I00
sg625
g0
(g78
g2
Ntp1504
Rp1505
(dp1506
g14
I00
sg32
I00
sg82
g640
sg15
I00
sbsg190
g0
(g78
g2
Ntp1507
Rp1508
(dp1509
g14
I00
sg32
I01
sg82
S'SiStripLorentzAngleRcd'
p1510
sg15
I00
sbsg11
(lp1511
g190
ag625
asbsg35
S'SiStripLorentzAngleDepESProducer'
p1512
sg1488
g0
(g103
g2
Ntp1513
Rp1514
(dp1515
g14
I00
sg32
I01
sg15
I00
sg625
g0
(g78
g2
Ntp1516
Rp1517
(dp1518
g14
I00
sg32
I00
sg82
g652
sg15
I00
sbsg190
g0
(g78
g2
Ntp1519
Rp1520
(dp1521
g14
I00
sg32
I01
sg82
g1510
sg15
I00
sbsg11
(lp1522
g190
ag625
asbsbsI14403536
g165
sI14250576
g0
(g7
g2
Ntp1523
Rp1524
(dp1525
g11
(lp1526
sg14
I00
sg15
I00
sg16
I40
sg17
g18
sg34
S'GlobalTrackingGeometryESProducer'
p1527
sg35
g1527
sbsI14250640
g0
(g7
g2
Ntp1528
Rp1529
(dp1530
g11
(lp1531
sg14
I00
sg15
I00
sg16
I40
sg17
g18
sg34
S'TrackerRecoGeometryESProducer'
p1532
sg35
g1532
sbsI14361744
g616
sI14250768
g0
(g7
g2
Ntp1533
Rp1534
(dp1535
g11
(lp1536
g89
asg14
I00
sg89
g0
(g78
g2
Ntp1537
Rp1538
(dp1539
g14
I00
sg32
I01
sg82
g93
sg15
I00
sbsg15
I00
sg16
I40
sg17
g18
sg34
S'trackerTopology'
p1540
sg35
S'TrackerTopologyEP'
p1541
sbssg1422
g1372
sg1303
g1293
sg1329
g1326
sg1265
g1262
sg1532
g1529
sg163
g165
sg1500
g1485
sg1171
g1168
sg1359
g1344
sg578
g575
sg1190
g1173
sg1540
g1534
sg1321
g1305
sg873
g875
sg745
g748
sg1335
g1332
sg1260
g1193
sS'_Process__aliases'
p1542
(dp1543
sg1527
g1524
sg1166
g1163
sg1365
g1362
sg1273
g1270
sg1482
g1476
sg1370
g1367
sg1450
g1425
sg1290
g1278
sg1147
g1126
sS'_Process__schedule'
p1544
g741
sg1033
g1020
sg1468
g1458
sS'_Process__modifiers'
p1545
(tsS'_Process__filters'
p1546
(dp1547
sS'_Process__esproducers'
p1548
(dp1549
g6
g9
sg1166
g1163
sg1532
g1529
sg823
g825
sg1260
g1193
sg536
g538
sg840
g842
sg1527
g1524
sg544
g546
sg1500
g1485
sg1147
g1126
sg1365
g1362
sg1273
g1270
sg1370
g1367
sg1482
g1476
sg957
g959
sg995
g997
sg1003
g1005
sg1335
g1332
sg604
g606
sg1450
g1425
sg96
g98
sg614
g616
sg1290
g1278
sg1422
g1372
sg845
g847
sg1303
g1293
sg1468
g1458
sg1265
g1262
sg806
g808
sg1033
g1020
sg1329
g1326
sg1359
g1344
sg759
g761
sg1171
g1168
sg179
g181
sg1190
g1173
sg84
g86
sg292
g294
sg1540
g1534
sg297
g299
sg1160
g1153
sg1321
g1305
ssS'_Process__partialschedules'
p1550
(dp1551
sg1160
g1153
sb.