(dp1
S'OriginalConfig'
p2
ccopy_reg
_reconstructor
p3
(cWMCore.Configuration
Configuration
p4
c__builtin__
object
p5
NtRp6
(dp7
S'Site'
p8
g3
(cWMCore.Configuration
ConfigSection
p9
g5
NtRp10
(dp11
S'_internal_skipChecks'
p12
I00
sS'_internal_documentation'
p13
S''
sS'_internal_settings'
p14
c__builtin__
set
p15
((lp16
S'storageSite'
p17
atRp18
sS'_internal_name'
p19
g8
sS'_internal_docstrings'
p20
(dp21
sS'_internal_children'
p22
g15
((ltRp23
sg17
S'T2_RU_ITEP'
p24
sS'_internal_parent_ref'
p25
NsbsS'_internal_sections'
p26
(lp27
S'User'
p28
aS'General'
p29
aS'JobType'
p30
aS'Data'
p31
ag8
asg29
g3
(g9
g5
NtRp32
(dp33
g12
I00
sg13
S''
sg14
g15
((lp34
S'workArea'
p35
aS'requestName'
p36
atRp37
sg19
g29
sg20
(dp38
sg22
g15
((ltRp39
sg36
S'decorrelations_mc_pythia8_QCD_Pt35toInf_13TeV_pythia8_noPU'
p40
sg25
Nsg35
S'decorrelations_mc_pythia8'
p41
sbsS'_internal_webapps'
p42
(lp43
sg28
g3
(g9
g5
NtRp44
(dp45
g12
I00
sg13
S''
sg14
g15
((ltRp46
sg19
g28
sg20
(dp47
sg22
g15
((ltRp48
sg25
NsbsS'_internal_components'
p49
(lp50
sg31
g3
(g9
g5
NtRp51
(dp52
S'inputDataset'
p53
S'/QCD_Pt-35toInf_TuneCUETP8M1_13TeV-pythia8/RunIIFall15MiniAODv2-noPU_castor_76X_mcRun2_asymptotic_v12-v1/MINIAODSIM'
p54
sS'outputDatasetTag'
p55
g40
sg12
I00
sS'unitsPerJob'
p56
I100000
sg13
S''
sg14
g15
((lp57
g53
ag56
ag55
aS'splitting'
p58
atRp59
sg19
g31
sg58
S'EventAwareLumiBased'
p60
sg20
(dp61
sg22
g15
((ltRp62
sg25
Nsbsg30
g3
(g9
g5
NtRp63
(dp64
g12
I00
sg13
S''
sg14
g15
((lp65
S'psetName'
p66
aS'pluginName'
p67
atRp68
sg19
g30
sg20
(dp69
sg67
S'Analysis'
p70
sg22
g15
((ltRp71
sg66
S'treemaker_DiJets_76.py'
p72
sg25
NsbsbsS'voGroup'
p73
S''
sS'Server'
p74
S'cmsweb.cern.ch'
p75
sS'instance'
p76
S'prod'
p77
sS'RequestName'
p78
V171029_125833:ivanp_crab_decorrelations_mc_pythia8_QCD_Pt35toInf_13TeV_pythia8_noPU
p79
sS'voRole'
p80
S'NULL'
p81
sS'Port'
p82
S''
s.