ccopy_reg
_reconstructor
p0
(cFWCore.ParameterSet.Config
Process
p1
c__builtin__
object
p2
Ntp3
Rp4
(dp5
S'CaloGeometryBuilder'
p6
g0
(cFWCore.ParameterSet.Modules
ESProducer
p7
g2
Ntp8
Rp9
(dp10
S'_Parameterizable__parameterNames'
p11
(lp12
S'SelectedCalos'
p13
asS'_isFrozen'
p14
I00
sS'_isModified'
p15
I00
sS'_lineNumber'
p16
I40
sS'_filename'
p17
S'/cvmfs/cms.cern.ch/slc6_amd64_gcc493/cms/cmssw/CMSSW_7_6_3/python/FWCore/ParameterSet/Modules.py'
p18
sg13
g0
(cFWCore.ParameterSet.Types
vstring
p19
c__builtin__
list
p20
(lp21
S'HCAL'
p22
aS'ZDC'
p23
aS'CASTOR'
p24
aS'EcalBarrel'
p25
aS'EcalEndcap'
p26
aS'EcalPreshower'
p27
aS'TOWER'
p28
atp29
Rp30
(dp31
g14
I00
sS'_ParameterTypeBase__isTracked'
p32
I01
sg15
I00
sS'_nPerLine'
p33
I1
sbsS'_Labelable__label'
p34
g6
sS'_TypedParameterizable__type'
p35
g6
sbsS'_Process__sequences'
p36
(dp37
S'initialSequence'
p38
g0
(cFWCore.ParameterSet.SequenceTypes
Sequence
p39
g2
Ntp40
Rp41
(dp42
g14
I00
sS'_seq'
p43
g0
(cFWCore.ParameterSet.SequenceTypes
_SequenceCollection
p44
g2
Ntp45
Rp46
(dp47
S'_collection'
p48
(lp49
g0
(cFWCore.ParameterSet.Modules
EDProducer
p50
g2
Ntp51
Rp52
(dp53
g11
(lp54
sg14
I00
sg15
I00
sg16
I42
sg17
S'/afs/cern.ch/work/i/ivanp/CFF_SOFT/CMSSW_7_6_3/python/CommonFSQFramework/Core/customizePAT.py'
p55
sg34
S'initialCntr'
p56
sg35
S'EventCountProducer'
p57
sbasbsg15
I00
sg34
g38
sbssS'_Process__source'
p58
g0
(cFWCore.ParameterSet.Modules
Source
p59
g2
Ntp60
Rp61
(dp62
g11
(lp63
S'fileNames'
p64
asg14
I00
sg15
I00
sg16
I175
sg17
g18
sg64
g0
(g19
g20
(lp65
S'/store/mc/RunIIFall15MiniAODv2/MinBias_TuneCUETHS1-13TeV-herwigpp/MINIAODSIM/noPU_castor_76X_mcRun2_asymptotic_v12-v1/100000/0006DB23-C0E8-E611-A12A-008CFA197DC4.root'
p66
atp67
Rp68
(dp69
g14
I00
sg32
I00
sg15
I00
sg33
I1
sbsg35
S'PoolSource'
p70
sbsS'TFileService'
p71
g0
(cFWCore.ParameterSet.Modules
Service
p72
g2
Ntp73
Rp74
(dp75
g11
(lp76
S'fileName'
p77
asg14
I00
sg15
I00
sg16
I10
sg17
g18
sg77
g0
(cFWCore.ParameterSet.Types
string
p78
g2
Ntp79
Rp80
(dp81
g14
I00
sg32
I01
sS'_value'
p82
S'trees.root'
p83
sg15
I00
sbsg35
g71
sbsS'hcalDDDSimConstants'
p84
g0
(g7
g2
Ntp85
Rp86
(dp87
g11
(lp88
S'appendToDataLabel'
p89
asg14
I00
sg89
g0
(g78
g2
Ntp90
Rp91
(dp92
g14
I00
sg32
I01
sg82
S''
p93
sg15
I00
sbsg15
I00
sg16
I40
sg17
g18
sg34
g84
sg35
S'HcalDDDSimConstantsESModule'
p94
sbsS'source'
p95
g61
sS'CaloTowerGeometryFromDBEP'
p96
g0
(g7
g2
Ntp97
Rp98
(dp99
g11
(lp100
S'applyAlignment'
p101
aS'hcalTopologyConstants'
p102
asg14
I00
sg15
I01
sg16
I40
sg17
g18
sg102
g0
(cFWCore.ParameterSet.Types
PSet
p103
g2
Ntp104
Rp105
(dp106
g14
I00
sg32
I01
sg15
I00
sS'maxDepthHE'
p107
g0
(cFWCore.ParameterSet.Types
int32
p108
g2
Ntp109
Rp110
(dp111
g14
I00
sg32
I01
sg82
I3
sg15
I00
sbsS'maxDepthHB'
p112
g0
(g108
g2
Ntp113
Rp114
(dp115
g14
I00
sg32
I01
sg82
I2
sg15
I00
sbsg11
(lp116
g107
ag112
aS'mode'
p117
asg117
g0
(g78
g2
Ntp118
Rp119
(dp120
g14
I00
sg32
I01
sg82
S'HcalTopologyMode::LHC'
p121
sg15
I00
sbsbsg34
g96
sg101
g0
(cFWCore.ParameterSet.Types
bool
p122
g2
Ntp123
Rp124
(dp125
g14
I00
sg32
I01
sg82
I00
sg15
I00
sbsg35
g96
sbsS'HcalReLabel'
p126
g0
(g103
g2
Ntp127
Rp128
(dp129
g14
I00
sg32
I01
sg15
I00
sS'RelabelRules'
p130
g0
(g103
g2
Ntp131
Rp132
(dp133
g14
I00
sg32
I00
sg15
I00
sS'Eta16'
p134
g0
(cFWCore.ParameterSet.Types
vint32
p135
g20
(lp136
I1
aI1
aI2
aI2
aI2
aI2
aI2
aI2
aI2
aI3
aI3
aI3
aI3
aI3
aI3
aI3
aI3
aI3
aI3
atp137
Rp138
(dp139
g14
I00
sg32
I00
sg15
I00
sbsS'Eta17'
p140
g0
(g135
g20
(lp141
I1
aI1
aI2
aI2
aI3
aI3
aI3
aI4
aI4
aI4
aI4
aI4
aI5
aI5
aI5
aI5
aI5
aI5
aI5
atp142
Rp143
(dp144
g14
I00
sg32
I00
sg15
I00
sbsS'CorrectPhi'
p145
g0
(g122
g2
Ntp146
Rp147
(dp148
g14
I00
sg32
I00
sg82
I00
sg15
I00
sbsg11
(lp149
g134
ag140
aS'Eta1'
p150
ag145
asg150
g0
(g135
g20
(lp151
I1
aI2
aI2
aI2
aI3
aI3
aI3
aI3
aI3
aI3
aI3
aI3
aI3
aI3
aI3
aI3
aI3
aI3
aI3
atp152
Rp153
(dp154
g14
I00
sg32
I00
sg15
I00
sbsbsg11
(lp155
g130
aS'RelabelHits'
p156
asg34
g126
sg156
g0
(g122
g2
Ntp157
Rp158
(dp159
g14
I00
sg32
I00
sg82
I00
sg15
I00
sbsbsS'_Process__InExtendCall'
p160
I00
sS'_Process__producers'
p161
(dp162
S'XS'
p163
g0
(g50
g2
Ntp164
Rp165
(dp166
g11
(lp167
S'value'
p168
aS'provHack'
p169
asg14
I00
sg15
I01
sg16
I39
sg17
g55
sg168
g0
(cFWCore.ParameterSet.Types
double
p170
g2
Ntp171
Rp172
(dp173
g14
I00
sg32
I01
sg82
I-1
sg15
I00
sbsg169
g0
(g78
g2
Ntp174
Rp175
(dp176
g14
I00
sg32
I01
sg82
S'\n################################################################################\nAna version: decorrelations_mc_pythia8\nXS = -1\nisData = False\n################################################################################\n'
p177
sg15
I00
sbsg34
g163
sg35
S'DoubleProducer'
p178
sbsg56
g52
ssS'siPixelQualityESProducer'
p179
g0
(g7
g2
Ntp180
Rp181
(dp182
g11
(lp183
S'ListOfRecordToMerge'
p184
asg14
I00
sg15
I01
sg16
I40
sg17
g18
sg184
g0
(cFWCore.ParameterSet.Types
VPSet
p185
g20
(lp186
g0
(g103
g2
Ntp187
Rp188
(dp189
g14
I00
sg32
I01
sg15
I00
sS'record'
p190
g0
(g78
g2
Ntp191
Rp192
(dp193
g14
I00
sg32
I01
sg82
S'SiPixelQualityFromDbRcd'
p194
sg15
I00
sbsS'tag'
p195
g0
(g78
g2
Ntp196
Rp197
(dp198
g14
I00
sg32
I01
sg82
g93
sg15
I00
sbsg11
(lp199
g190
ag195
asbag0
(g103
g2
Ntp200
Rp201
(dp202
g14
I00
sg32
I01
sg15
I00
sg190
g0
(g78
g2
Ntp203
Rp204
(dp205
g14
I00
sg32
I01
sg82
S'SiPixelDetVOffRcd'
p206
sg15
I00
sbsg195
g0
(g78
g2
Ntp207
Rp208
(dp209
g14
I00
sg32
I01
sg82
g93
sg15
I00
sbsg11
(lp210
g190
ag195
asbatp211
Rp212
(dp213
g14
I00
sg32
I01
sg15
I00
sg33
I1
sbsg34
g179
sg35
S'SiPixelQualityESProducer'
p214
sbsS'GlobalTag'
p215
g0
(cFWCore.ParameterSet.Modules
ESSource
p216
g2
Ntp217
Rp218
(dp219
g11
(lp220
S'DBParameters'
p221
aS'toGet'
p222
aS'connect'
p223
aS'globaltag'
p224
asg14
I00
sg15
I01
sg224
g0
(g78
g2
Ntp225
Rp226
(dp227
g14
I00
sg32
I01
sg82
S'76X_mcRun2_asymptotic_RunIIFall15DR76_v1'
p228
sg15
I01
sbsg16
I11
sg17
S'/cvmfs/cms.cern.ch/slc6_amd64_gcc493/cms/cmssw/CMSSW_7_6_3/python/Configuration/StandardSequences/FrontierConditions_GlobalTag_cfi.py'
p229
sg222
g0
(g185
g20
(lp230
tp231
Rp232
(dp233
g14
I00
sg32
I01
sg15
I00
sg33
I1
sbsg221
g0
(g103
g2
Ntp234
Rp235
(dp236
g14
I00
sg32
I01
sS'authenticationPath'
p237
g0
(g78
g2
Ntp238
Rp239
(dp240
g14
I00
sg32
I00
sg82
g93
sg15
I00
sbsS'connectionRetrialPeriod'
p241
g0
(g108
g2
Ntp242
Rp243
(dp244
g14
I00
sg32
I00
sg82
I10
sg15
I00
sbsg15
I00
sS'idleConnectionCleanupPeriod'
p245
g0
(g108
g2
Ntp246
Rp247
(dp248
g14
I00
sg32
I00
sg82
I10
sg15
I00
sbsS'messageLevel'
p249
g0
(g108
g2
Ntp250
Rp251
(dp252
g14
I00
sg32
I00
sg82
I0
sg15
I00
sbsS'enablePoolAutomaticCleanUp'
p253
g0
(g122
g2
Ntp254
Rp255
(dp256
g14
I00
sg32
I00
sg82
I00
sg15
I00
sbsS'enableConnectionSharing'
p257
g0
(g122
g2
Ntp258
Rp259
(dp260
g14
I00
sg32
I00
sg82
I01
sg15
I00
sbsS'enableReadOnlySessionOnUpdateConnection'
p261
g0
(g122
g2
Ntp262
Rp263
(dp264
g14
I00
sg32
I00
sg82
I00
sg15
I00
sbsg11
(lp265
g237
ag261
ag245
ag249
ag253
ag257
aS'connectionRetrialTimeOut'
p266
aS'connectionTimeOut'
p267
aS'authenticationSystem'
p268
ag241
asg267
g0
(g108
g2
Ntp269
Rp270
(dp271
g14
I00
sg32
I00
sg82
I60
sg15
I00
sbsg268
g0
(g108
g2
Ntp272
Rp273
(dp274
g14
I00
sg32
I00
sg82
I0
sg15
I00
sbsg266
g0
(g108
g2
Ntp275
Rp276
(dp277
g14
I00
sg32
I00
sg82
I60
sg15
I00
sbsbsg223
g0
(g78
g2
Ntp278
Rp279
(dp280
g14
I00
sg32
I01
sg82
S'frontier://FrontierProd/CMS_CONDITIONS'
p281
sg15
I00
sbsg34
g215
sg35
S'PoolDBESSource'
p282
sbsS'_Process__endpaths'
p283
g0
(cFWCore.ParameterSet.DictTypes
SortedKeysDict
p284
c__builtin__
dict
p285
(dp286
tp287
Rp288
(dp289
S'list'
p290
(lp291
sbsS'MuonDetLayerGeometryESProducer'
p292
g0
(g7
g2
Ntp293
Rp294
(dp295
g11
(lp296
sg14
I00
sg15
I00
sg16
I40
sg17
g18
sg34
g292
sg35
g292
sbsg56
g52
sS'EcalEndcapGeometryFromDBEP'
p297
g0
(g7
g2
Ntp298
Rp299
(dp300
g11
(lp301
g101
asg14
I00
sg15
I01
sg16
I40
sg17
g18
sg34
g297
sg101
g0
(g122
g2
Ntp302
Rp303
(dp304
g14
I00
sg32
I01
sg82
I01
sg15
I01
sbsg35
g297
sbsS'MessageLogger'
p305
g0
(g72
g2
Ntp306
Rp307
(dp308
g14
I00
sS'suppressInfo'
p309
g0
(g19
g20
(lp310
tp311
Rp312
(dp313
g14
I00
sg32
I00
sg15
I00
sg33
I1
sbsS'suppressDebug'
p314
g0
(g19
g20
(lp315
tp316
Rp317
(dp318
g14
I00
sg32
I00
sg15
I00
sg33
I1
sbsS'cout'
p319
g0
(g103
g2
Ntp320
Rp321
(dp322
g14
I00
sg32
I00
sS'placeholder'
p323
g0
(g122
g2
Ntp324
Rp325
(dp326
g14
I00
sg32
I00
sg82
I01
sg15
I00
sbsg15
I00
sg11
(lp327
g323
asbsg16
I10
sS'debugModules'
p328
g0
(g19
g20
(lp329
tp330
Rp331
(dp332
g14
I00
sg32
I00
sg15
I00
sg33
I1
sbsg35
g305
sS'fwkJobReports'
p333
g0
(g19
g20
(lp334
S'FrameworkJobReport'
p335
atp336
Rp337
(dp338
g14
I00
sg32
I00
sg15
I00
sg33
I1
sbsg11
(lp339
g309
aS'debugs'
p340
ag314
ag319
aS'cerr_stats'
p341
aS'warnings'
p342
aS'default'
p343
aS'statistics'
p344
aS'cerr'
p345
ag335
aS'suppressWarning'
p346
aS'errors'
p347
aS'destinations'
p348
ag328
aS'infos'
p349
aS'categories'
p350
ag333
asg344
g0
(g19
g20
(lp351
g341
atp352
Rp353
(dp354
g14
I00
sg32
I00
sg15
I00
sg33
I1
sbsg17
g18
sg348
g0
(g19
g20
(lp355
g342
ag347
ag349
ag340
ag319
ag345
atp356
Rp357
(dp358
g14
I00
sg32
I00
sg15
I00
sg33
I1
sbsg340
g0
(g103
g2
Ntp359
Rp360
(dp361
g14
I00
sg32
I00
sg323
g0
(g122
g2
Ntp362
Rp363
(dp364
g14
I00
sg32
I00
sg82
I01
sg15
I00
sbsg15
I00
sg11
(lp365
g323
asbsg342
g0
(g103
g2
Ntp366
Rp367
(dp368
g14
I00
sg32
I00
sg323
g0
(g122
g2
Ntp369
Rp370
(dp371
g14
I00
sg32
I00
sg82
I01
sg15
I00
sbsg15
I00
sg11
(lp372
g323
asbsg347
g0
(g103
g2
Ntp373
Rp374
(dp375
g14
I00
sg32
I00
sg323
g0
(g122
g2
Ntp376
Rp377
(dp378
g14
I00
sg32
I00
sg82
I01
sg15
I00
sbsg15
I00
sg11
(lp379
g323
asbsg335
g0
(g103
g2
Ntp380
Rp381
(dp382
g14
I00
sg32
I00
sg15
I00
sg343
g0
(g103
g2
Ntp383
Rp384
(dp385
g14
I00
sg32
I00
sS'limit'
p386
g0
(g108
g2
Ntp387
Rp388
(dp389
g14
I00
sg32
I00
sg82
I0
sg15
I00
sbsg15
I00
sg11
(lp390
g386
asbsS'FwkJob'
p391
g0
(g103
g2
Ntp392
Rp393
(dp394
g14
I00
sg32
I00
sg15
I00
sg386
g0
(g108
g2
Ntp395
Rp396
(dp397
g14
I00
sg32
I00
sg82
I10000000
sg15
I00
sbsg11
(lp398
S'optionalPSet'
p399
ag386
asg399
g0
(g122
g2
Ntp400
Rp401
(dp402
g14
I00
sg32
I00
sg82
I01
sg15
I00
sbsbsg11
(lp403
g343
ag399
ag391
asg399
g0
(g122
g2
Ntp404
Rp405
(dp406
g14
I00
sg32
I00
sg82
I01
sg15
I00
sbsbsg346
g0
(g19
g20
(lp407
tp408
Rp409
(dp410
g14
I00
sg32
I00
sg15
I00
sg33
I1
sbsg349
g0
(g103
g2
Ntp411
Rp412
(dp413
g14
I00
sg32
I00
sg15
I00
sS'Root_NoDictionary'
p414
g0
(g103
g2
Ntp415
Rp416
(dp417
g14
I00
sg32
I00
sg15
I00
sg386
g0
(g108
g2
Ntp418
Rp419
(dp420
g14
I00
sg32
I00
sg82
I0
sg15
I00
sbsg11
(lp421
g399
ag386
asg399
g0
(g122
g2
Ntp422
Rp423
(dp424
g14
I00
sg32
I00
sg82
I01
sg15
I00
sbsbsg11
(lp425
g399
ag414
ag323
asg399
g0
(g122
g2
Ntp426
Rp427
(dp428
g14
I00
sg32
I00
sg82
I01
sg15
I00
sbsg323
g0
(g122
g2
Ntp429
Rp430
(dp431
g14
I00
sg32
I00
sg82
I01
sg15
I00
sbsbsg350
g0
(g19
g20
(lp432
g391
aS'FwkReport'
p433
aS'FwkSummary'
p434
ag414
atp435
Rp436
(dp437
g14
I00
sg32
I00
sg15
I00
sg33
I1
sbsg15
I00
sg341
g0
(g103
g2
Ntp438
Rp439
(dp440
g14
I00
sg32
I00
sg15
I00
sg399
g0
(g122
g2
Ntp441
Rp442
(dp443
g14
I00
sg32
I00
sg82
I01
sg15
I00
sbsg11
(lp444
S'threshold'
p445
aS'output'
p446
ag399
asg445
g0
(g78
g2
Ntp447
Rp448
(dp449
g14
I00
sg32
I00
sg82
S'WARNING'
p450
sg15
I00
sbsg446
g0
(g78
g2
Ntp451
Rp452
(dp453
g14
I00
sg32
I00
sg82
g345
sg15
I00
sbsbsg343
g0
(g103
g2
Ntp454
Rp455
(dp456
g14
I00
sg32
I00
sg15
I00
sg11
(lp457
sbsg345
g0
(g103
g2
Ntp458
Rp459
(dp460
g14
I00
sg32
I00
sS'noTimeStamps'
p461
g0
(g122
g2
Ntp462
Rp463
(dp464
g14
I00
sg32
I00
sg82
I00
sg15
I00
sbsg433
g0
(g103
g2
Ntp465
Rp466
(dp467
g14
I00
sg32
I00
sg15
I01
sS'reportEvery'
p468
g0
(g108
g2
Ntp469
Rp470
(dp471
g14
I00
sg32
I00
sg82
I1000
sg15
I01
sbsg386
g0
(g108
g2
Ntp472
Rp473
(dp474
g14
I00
sg32
I00
sg82
I10000000
sg15
I00
sbsg11
(lp475
g468
ag399
ag386
asg399
g0
(g122
g2
Ntp476
Rp477
(dp478
g14
I00
sg32
I00
sg82
I01
sg15
I00
sbsbsg15
I00
sg343
g0
(g103
g2
Ntp479
Rp480
(dp481
g14
I00
sg32
I00
sg386
g0
(g108
g2
Ntp482
Rp483
(dp484
g14
I00
sg32
I00
sg82
I10000000
sg15
I00
sbsg15
I00
sg11
(lp485
g386
asbsg414
g0
(g103
g2
Ntp486
Rp487
(dp488
g14
I00
sg32
I00
sg15
I00
sg386
g0
(g108
g2
Ntp489
Rp490
(dp491
g14
I00
sg32
I00
sg82
I0
sg15
I00
sbsg11
(lp492
g399
ag386
asg399
g0
(g122
g2
Ntp493
Rp494
(dp495
g14
I00
sg32
I00
sg82
I01
sg15
I00
sbsbsS'INFO'
p496
g0
(g103
g2
Ntp497
Rp498
(dp499
g14
I00
sg32
I00
sg386
g0
(g108
g2
Ntp500
Rp501
(dp502
g14
I00
sg32
I00
sg82
I0
sg15
I00
sbsg15
I00
sg11
(lp503
g386
asbsg399
g0
(g122
g2
Ntp504
Rp505
(dp506
g14
I00
sg32
I00
sg82
I01
sg15
I00
sbsg391
g0
(g103
g2
Ntp507
Rp508
(dp509
g14
I00
sg32
I00
sg15
I00
sg386
g0
(g108
g2
Ntp510
Rp511
(dp512
g14
I00
sg32
I00
sg82
I0
sg15
I00
sbsg11
(lp513
g399
ag386
asg399
g0
(g122
g2
Ntp514
Rp515
(dp516
g14
I00
sg32
I00
sg82
I01
sg15
I00
sbsbsg434
g0
(g103
g2
Ntp517
Rp518
(dp519
g14
I00
sg32
I00
sg15
I00
sg468
g0
(g108
g2
Ntp520
Rp521
(dp522
g14
I00
sg32
I00
sg82
I1
sg15
I00
sbsg386
g0
(g108
g2
Ntp523
Rp524
(dp525
g14
I00
sg32
I00
sg82
I10000000
sg15
I00
sbsg11
(lp526
g468
ag399
ag386
asg399
g0
(g122
g2
Ntp527
Rp528
(dp529
g14
I00
sg32
I00
sg82
I01
sg15
I00
sbsbsg11
(lp530
g496
ag461
ag433
ag343
ag414
ag445
ag391
ag434
ag399
asg445
g0
(g78
g2
Ntp531
Rp532
(dp533
g14
I00
sg32
I00
sg82
g496
sg15
I00
sbsbsbsS'_Process__services'
p534
(dp535
g305
g307
sg71
g74
ssS'CastorGeometryFromDBEP'
p536
g0
(g7
g2
Ntp537
Rp538
(dp539
g11
(lp540
g101
asg14
I00
sg15
I00
sg16
I40
sg17
g18
sg34
g536
sg101
g0
(g122
g2
Ntp541
Rp542
(dp543
g14
I00
sg32
I01
sg82
I00
sg15
I00
sbsg35
g536
sbsS'trackerGeometryDB'
p544
g0
(g7
g2
Ntp545
Rp546
(dp547
g11
(lp548
g89
aS'fromDDD'
p549
ag101
aS'alignmentsLabel'
p550
asg14
I00
sg89
g0
(g78
g2
Ntp551
Rp552
(dp553
g14
I00
sg32
I01
sg82
g93
sg15
I00
sbsg15
I00
sg550
g0
(g78
g2
Ntp554
Rp555
(dp556
g14
I00
sg32
I01
sg82
g93
sg15
I00
sbsg17
g18
sg16
I40
sg34
g544
sg549
g0
(g122
g2
Ntp557
Rp558
(dp559
g14
I00
sg32
I01
sg82
I00
sg15
I00
sbsg101
g0
(g122
g2
Ntp560
Rp561
(dp562
g14
I00
sg32
I01
sg82
I01
sg15
I00
sbsg35
S'TrackerDigiGeometryESModule'
p563
sbsS'pTreeProducers'
p564
g0
(cFWCore.ParameterSet.SequenceTypes
Path
p565
g2
Ntp566
Rp567
(dp568
g14
I00
sg43
g0
(g44
g2
Ntp569
Rp570
(dp571
g48
(lp572
g41
ag0
(cFWCore.ParameterSet.Modules
EDAnalyzer
p573
g2
Ntp574
Rp575
(dp576
g11
(lp577
sg14
I00
sg15
I00
sg16
I32
sg17
g55
sg34
S'infoHisto'
p578
sg35
S'SaveCountHistoInTreeFile'
p579
sbasbsg15
I00
sg34
g564
sbsS'eegeom'
p580
g0
(g216
g2
Ntp581
Rp582
(dp583
g11
(lp584
S'iovIsRunNotTime'
p585
aS'recordName'
p586
aS'firstValid'
p587
asg14
I00
sg15
I00
sg16
I6
sg586
g0
(g78
g2
Ntp588
Rp589
(dp590
g14
I00
sg32
I01
sg82
S'EcalMappingRcd'
p591
sg15
I00
sbsg17
S'/cvmfs/cms.cern.ch/slc6_amd64_gcc493/cms/cmssw/CMSSW_7_6_3/python/Geometry/EcalMapping/EcalMappingRecord_cfi.py'
p592
sg587
g0
(cFWCore.ParameterSet.Types
vuint32
p593
g20
(lp594
I1
atp595
Rp596
(dp597
g14
I00
sg32
I01
sg15
I00
sbsg34
g580
sg585
g0
(g122
g2
Ntp598
Rp599
(dp600
g14
I00
sg32
I01
sg82
I01
sg15
I00
sbsg35
S'EmptyESSource'
p601
sbsS'_Process__vpsets'
p602
(dp603
sS'EcalTrigTowerConstituentsMapBuilder'
p604
g0
(g7
g2
Ntp605
Rp606
(dp607
g11
(lp608
S'MapFile'
p609
asg14
I00
sg15
I00
sg609
g0
(g78
g2
Ntp610
Rp611
(dp612
g14
I00
sg32
I00
sg82
S'Geometry/EcalMapping/data/EndCap_TTMap.txt'
p613
sg15
I00
sbsg17
g18
sg16
I40
sg34
g604
sg35
g604
sbsS'siStripBackPlaneCorrectionDepESProducer'
p614
g0
(g7
g2
Ntp615
Rp616
(dp617
g11
(lp618
S'LatencyRecord'
p619
aS'BackPlaneCorrectionDeconvMode'
p620
aS'BackPlaneCorrectionPeakMode'
p621
asg14
I00
sg15
I00
sg16
I40
sg17
g18
sg619
g0
(g103
g2
Ntp622
Rp623
(dp624
g14
I00
sg32
I01
sg15
I00
sS'label'
p625
g0
(g78
g2
Ntp626
Rp627
(dp628
g14
I00
sg32
I00
sg82
g93
sg15
I00
sbsg190
g0
(g78
g2
Ntp629
Rp630
(dp631
g14
I00
sg32
I01
sg82
S'SiStripLatencyRcd'
p632
sg15
I00
sbsg11
(lp633
g190
ag625
asbsg621
g0
(g103
g2
Ntp634
Rp635
(dp636
g14
I00
sg32
I01
sg15
I00
sg625
g0
(g78
g2
Ntp637
Rp638
(dp639
g14
I00
sg32
I00
sg82
S'peak'
p640
sg15
I00
sbsg190
g0
(g78
g2
Ntp641
Rp642
(dp643
g14
I00
sg32
I01
sg82
S'SiStripBackPlaneCorrectionRcd'
p644
sg15
I00
sbsg11
(lp645
g190
ag625
asbsg34
g614
sg620
g0
(g103
g2
Ntp646
Rp647
(dp648
g14
I00
sg32
I01
sg15
I00
sg625
g0
(g78
g2
Ntp649
Rp650
(dp651
g14
I00
sg32
I00
sg82
S'deconvolution'
p652
sg15
I00
sbsg190
g0
(g78
g2
Ntp653
Rp654
(dp655
g14
I00
sg32
I01
sg82
g644
sg15
I00
sbsg11
(lp656
g190
ag625
asbsg35
S'SiStripBackPlaneCorrectionDepESProducer'
p657
sbsS'JetTree'
p658
g0
(g573
g2
Ntp659
Rp660
(dp661
g11
(lp662
S'simpleEventInfo'
p663
aS'slimmedMCJetsPt10'
p664
asg14
I00
sg15
I01
sg16
I53
sg17
S'/afs/cern.ch/work/i/ivanp/CFF_SOFT/CMSSW_7_6_3/src/CommonFSQFramework/Skim/config/DiJets/treemaker_DiJets_76.py'
p665
sg664
g0
(g103
g2
Ntp666
Rp667
(dp668
g14
I00
sg32
I01
sS'input_gen'
p669
g0
(cFWCore.ParameterSet.Types
InputTag
p670
g2
Ntp671
Rp672
(dp673
g14
I00
sg32
I01
sg15
I00
sS'_InputTag__moduleLabel'
p674
S'slimmedGenJets'
p675
sS'_InputTag__processName'
p676
g93
sS'_InputTag__productInstance'
p677
g93
sbsg15
I00
sS'branchPrefix'
p678
g0
(g78
g2
Ntp679
Rp680
(dp681
g14
I00
sg32
I00
sg82
S'slimmedJetsPt10_'
p682
sg15
I00
sbsS'miniView'
p683
g0
(g78
g2
Ntp684
Rp685
(dp686
g14
I00
sg32
I01
sg82
S'JetMCSimpleView'
p687
sg15
I00
sbsg11
(lp688
g669
aS'minPt'
p689
ag678
ag683
aS'input'
p690
aS'payload'
p691
asg690
g0
(g670
g2
Ntp692
Rp693
(dp694
g14
I00
sg32
I01
sg15
I00
sg674
S'slimmedJets'
p695
sg676
g93
sg677
g93
sbsg691
g0
(g78
g2
Ntp696
Rp697
(dp698
g14
I00
sg32
I01
sg82
S'AK4PFchs'
p699
sg15
I00
sbsg689
g0
(g170
g2
Ntp700
Rp701
(dp702
g14
I00
sg32
I01
sg82
I10
sg15
I00
sbsbsg663
g0
(g103
g2
Ntp703
Rp704
(dp705
g14
I00
sg32
I01
sg15
I00
sg678
g0
(g78
g2
Ntp706
Rp707
(dp708
g14
I00
sg32
I00
sg82
S'event_'
p709
sg15
I00
sbsS'vtx_col'
p710
g0
(g670
g2
Ntp711
Rp712
(dp713
g14
I00
sg32
I01
sg15
I00
sg674
S'offlineSlimmedPrimaryVertices'
p714
sg676
g93
sg677
g93
sbsg683
g0
(g78
g2
Ntp715
Rp716
(dp717
g14
I00
sg32
I01
sg82
S'EventSimpleView'
p718
sg15
I00
sbsg11
(lp719
g678
ag683
ag710
asbsg34
g658
sg35
S'CFFTreeProducer'
p720
sbsS'schedule'
p721
g0
(cFWCore.ParameterSet.SequenceTypes
Schedule
p722
g20
(lp723
g0
(g565
g2
Ntp724
Rp725
(dp726
g14
I00
sg43
g0
(g44
g2
Ntp727
Rp728
(dp729
g48
(lp730
g165
asbsg15
I00
sg34
S'pUtil'
p731
sbag0
(g565
g2
Ntp732
Rp733
(dp734
g14
I00
sg43
g0
(g44
g2
Ntp735
Rp736
(dp737
g48
(lp738
g660
asbsg15
I00
sg34
S'pJetTree'
p739
sbag567
atp740
Rp741
(dp742
g14
I00
sg32
I01
sg15
I00
sbsS'_Process__esprefers'
p743
(dp744
S'es_prefer_hcalHardcode'
p745
g0
(cFWCore.ParameterSet.Modules
ESPrefer
p746
g2
Ntp747
Rp748
(dp749
g11
(lp750
sg14
I00
sg15
I00
sS'_targetLabel'
p751
S'es_hardcode'
p752
sg16
I73
sg17
g18
sg34
g745
sg35
S'HcalHardcodeCalibrations'
p753
sbssS'_Process__isStrict'
p754
I00
sS'_Process__outputmodules'
p755
(dp756
sS'_Process__analyzers'
p757
(dp758
g658
g660
sg578
g575
ssS'idealForDigiTrackerGeometry'
p759
g0
(g7
g2
Ntp760
Rp761
(dp762
g11
(lp763
g89
ag549
ag101
ag550
asg14
I00
sg89
g0
(g78
g2
Ntp764
Rp765
(dp766
g14
I00
sg32
I01
sg82
S'idealForDigi'
p767
sg15
I01
sbsg15
I01
sg550
g0
(g78
g2
Ntp768
Rp769
(dp770
g14
I00
sg32
I01
sg82
S'fakeForIdeal'
p771
sg15
I01
sbsg17
S'/cvmfs/cms.cern.ch/slc6_amd64_gcc493/cms/cmssw/CMSSW_7_6_3/python/Geometry/TrackerGeometryBuilder/idealForDigiTrackerGeometryDB_cff.py'
p772
sg16
I8
sg34
g759
sg549
g0
(g122
g2
Ntp773
Rp774
(dp775
g14
I00
sg32
I01
sg82
I00
sg15
I00
sbsg101
g0
(g122
g2
Ntp776
Rp777
(dp778
g14
I00
sg32
I01
sg82
I00
sg15
I01
sbsg35
g563
sbsS'_Process__looper'
p779
NsS'TMFDataForProv'
p780
g0
(g103
g2
Ntp781
Rp782
(dp783
g14
I00
sg32
I01
sg15
I00
sS'notes'
p784
g0
(g78
g2
Ntp785
Rp786
(dp787
g14
I00
sg32
I01
sg82
S'test'
p788
sg15
I00
sbsg11
(lp789
g784
asg34
g780
sbsS'_Process__paths'
p790
g0
(g284
g285
(dp791
g731
g725
sg564
g567
sg739
g733
stp792
Rp793
(dp794
g290
(lp795
g564
ag731
ag739
asbsS'_Process__subProcess'
p796
NsS'options'
p797
g0
(g103
g2
Ntp798
Rp799
(dp800
g14
I00
sg32
I00
sg15
I01
sS'wantSummary'
p801
g0
(g122
g2
Ntp802
Rp803
(dp804
g14
I00
sg32
I00
sg82
I00
sg15
I01
sbsg11
(lp805
g801
asg34
g797
sbsS'DTGeometryESModule'
p806
g0
(g7
g2
Ntp807
Rp808
(dp809
g11
(lp810
g89
ag549
ag101
ag550
asg14
I00
sg89
g0
(g78
g2
Ntp811
Rp812
(dp813
g14
I00
sg32
I01
sg82
g93
sg15
I00
sbsg15
I00
sg550
g0
(g78
g2
Ntp814
Rp815
(dp816
g14
I00
sg32
I01
sg82
g93
sg15
I00
sbsg17
g18
sg16
I40
sg34
g806
sg549
g0
(g122
g2
Ntp817
Rp818
(dp819
g14
I00
sg32
I01
sg82
I00
sg15
I00
sbsg101
g0
(g122
g2
Ntp820
Rp821
(dp822
g14
I00
sg32
I01
sg82
I01
sg15
I00
sbsg35
g806
sbsS'VolumeBasedMagneticFieldESProducer'
p823
g0
(g7
g2
Ntp824
Rp825
(dp826
g11
(lp827
S'valueOverride'
p828
aS'debugBuilder'
p829
ag625
asg14
I00
sg828
g0
(g108
g2
Ntp830
Rp831
(dp832
g14
I00
sg32
I01
sg82
I-1
sg15
I00
sbsg16
I40
sg17
g18
sg625
g0
(g78
g2
Ntp833
Rp834
(dp835
g14
I00
sg32
I00
sg82
g93
sg15
I00
sbsg829
g0
(g122
g2
Ntp836
Rp837
(dp838
g14
I00
sg32
I00
sg82
I00
sg15
I00
sbsg34
g823
sg35
S'VolumeBasedMagneticFieldESProducerFromDB'
p839
sg15
I00
sbsS'CaloTopologyBuilder'
p840
g0
(g7
g2
Ntp841
Rp842
(dp843
g11
(lp844
sg14
I00
sg15
I00
sg16
I40
sg17
g18
sg34
g840
sg35
g840
sbsg731
g725
sS'SiStripRecHitMatcherESProducer'
p845
g0
(g7
g2
Ntp846
Rp847
(dp848
g11
(lp849
S'PreFilter'
p850
aS'ComponentName'
p851
aS'NSigmaInside'
p852
asg14
I00
sg15
I00
sg17
g18
sg851
g0
(g78
g2
Ntp853
Rp854
(dp855
g14
I00
sg32
I01
sg82
S'StandardMatcher'
p856
sg15
I00
sbsg850
g0
(g122
g2
Ntp857
Rp858
(dp859
g14
I00
sg32
I01
sg82
I00
sg15
I00
sbsg16
I40
sg852
g0
(g170
g2
Ntp860
Rp861
(dp862
g14
I00
sg32
I01
sg82
F3.0
sg15
I00
sbsg34
g845
sg35
g845
sbsS'_Process__psets'
p863
(dp864
S'maxEvents'
p865
g0
(g103
g2
Ntp866
Rp867
(dp868
g14
I00
sg32
I00
sg15
I00
sg11
(lp869
g690
asg34
g865
sg690
g0
(g108
g2
Ntp870
Rp871
(dp872
g14
I00
sg32
I00
sg82
I1000
sg15
I00
sbsbsg780
g782
sg126
g128
sg797
g799
sS'CondDBSetup'
p873
g0
(g103
g2
Ntp874
Rp875
(dp876
g14
I00
sg32
I01
sg15
I00
sg221
g0
(g103
g2
Ntp877
Rp878
(dp879
g14
I00
sg32
I01
sg241
g0
(g108
g2
Ntp880
Rp881
(dp882
g14
I00
sg32
I00
sg82
I10
sg15
I00
sbsg237
g0
(g78
g2
Ntp883
Rp884
(dp885
g14
I00
sg32
I00
sg82
g93
sg15
I00
sbsg15
I00
sg245
g0
(g108
g2
Ntp886
Rp887
(dp888
g14
I00
sg32
I00
sg82
I10
sg15
I00
sbsg249
g0
(g108
g2
Ntp889
Rp890
(dp891
g14
I00
sg32
I00
sg82
I0
sg15
I00
sbsg253
g0
(g122
g2
Ntp892
Rp893
(dp894
g14
I00
sg32
I00
sg82
I00
sg15
I00
sbsg257
g0
(g122
g2
Ntp895
Rp896
(dp897
g14
I00
sg32
I00
sg82
I01
sg15
I00
sbsg261
g0
(g122
g2
Ntp898
Rp899
(dp900
g14
I00
sg32
I00
sg82
I00
sg15
I00
sbsg11
(lp901
g237
ag261
ag245
ag249
ag253
ag257
ag266
ag267
ag268
ag241
asg267
g0
(g108
g2
Ntp902
Rp903
(dp904
g14
I00
sg32
I00
sg82
I60
sg15
I00
sbsg268
g0
(g108
g2
Ntp905
Rp906
(dp907
g14
I00
sg32
I00
sg82
I0
sg15
I00
sbsg266
g0
(g108
g2
Ntp908
Rp909
(dp910
g14
I00
sg32
I00
sg82
I60
sg15
I00
sbsbsg11
(lp911
g221
asg34
g873
sbssS'_Process__essources'
p912
(dp913
g752
g0
(g216
g2
Ntp914
Rp915
(dp916
g11
(lp917
g126
aS'HERecalibration'
p918
ag222
aS'GainWidthsForTrigPrims'
p919
aS'HEreCalibCutoff'
p920
aS'HFRecalibration'
p921
aS'iLumi'
p922
ag102
asg14
I00
sg126
g128
sg15
I01
sg16
I19
sg918
g0
(g122
g2
Ntp923
Rp924
(dp925
g14
I00
sg32
I01
sg82
I00
sg15
I00
sbsg102
g0
(g103
g2
Ntp926
Rp927
(dp928
g14
I00
sg32
I01
sg15
I00
sg107
g0
(g108
g2
Ntp929
Rp930
(dp931
g14
I00
sg32
I01
sg82
I3
sg15
I00
sbsg112
g0
(g108
g2
Ntp932
Rp933
(dp934
g14
I00
sg32
I01
sg82
I2
sg15
I00
sbsg11
(lp935
g107
ag112
ag117
asg117
g0
(g78
g2
Ntp936
Rp937
(dp938
g14
I00
sg32
I01
sg82
g121
sg15
I00
sbsbsg222
g0
(g19
g20
(lp939
S'GainWidths'
p940
atp941
Rp942
(dp943
g14
I00
sg32
I00
sg15
I00
sg33
I1
sbsg919
g0
(g122
g2
Ntp944
Rp945
(dp946
g14
I00
sg32
I01
sg82
I00
sg15
I00
sbsg920
g0
(g170
g2
Ntp947
Rp948
(dp949
g14
I00
sg32
I01
sg82
F20.0
sg15
I00
sbsg921
g0
(g122
g2
Ntp950
Rp951
(dp952
g14
I00
sg32
I01
sg82
I00
sg15
I00
sbsg17
S'/cvmfs/cms.cern.ch/slc6_amd64_gcc493/cms/cmssw/CMSSW_7_6_3/python/CalibCalorimetry/HcalPlugins/Hcal_Conditions_forGlobalTag_cff.py'
p953
sg34
g752
sg922
g0
(g170
g2
Ntp954
Rp955
(dp956
g14
I00
sg32
I01
sg82
F-1.0
sg15
I00
sbsg35
g753
sbsg580
g582
sg215
g218
ssg70
g61
sg38
g41
sg865
g867
sS'CSCGeometryESModule'
p957
g0
(g7
g2
Ntp958
Rp959
(dp960
g11
(lp961
g89
aS'useDDD'
p962
aS'debugV'
p963
aS'useGangedStripsInME1a'
p964
ag550
aS'useOnlyWiresInME1a'
p965
aS'useRealWireGeometry'
p966
aS'useCentreTIOffsets'
p967
ag101
asg14
I00
sg89
g0
(g78
g2
Ntp968
Rp969
(dp970
g14
I00
sg32
I01
sg82
g93
sg15
I00
sbsg15
I00
sg963
g0
(g122
g2
Ntp971
Rp972
(dp973
g14
I00
sg32
I00
sg82
I00
sg15
I00
sbsg17
g18
sg964
g0
(g122
g2
Ntp974
Rp975
(dp976
g14
I00
sg32
I01
sg82
I01
sg15
I00
sbsg550
g0
(g78
g2
Ntp977
Rp978
(dp979
g14
I00
sg32
I01
sg82
g93
sg15
I00
sbsg965
g0
(g122
g2
Ntp980
Rp981
(dp982
g14
I00
sg32
I01
sg82
I00
sg15
I00
sbsg962
g0
(g122
g2
Ntp983
Rp984
(dp985
g14
I00
sg32
I01
sg82
I00
sg15
I00
sbsg16
I40
sg967
g0
(g122
g2
Ntp986
Rp987
(dp988
g14
I00
sg32
I01
sg82
I00
sg15
I00
sbsg34
g957
sg966
g0
(g122
g2
Ntp989
Rp990
(dp991
g14
I00
sg32
I01
sg82
I01
sg15
I00
sbsg101
g0
(g122
g2
Ntp992
Rp993
(dp994
g14
I00
sg32
I01
sg82
I01
sg15
I00
sbsg35
g957
sbsS'EcalBarrelGeometryFromDBEP'
p995
g0
(g7
g2
Ntp996
Rp997
(dp998
g11
(lp999
g101
asg14
I00
sg15
I01
sg16
I40
sg17
g18
sg34
g995
sg101
g0
(g122
g2
Ntp1000
Rp1001
(dp1002
g14
I00
sg32
I01
sg82
I01
sg15
I01
sbsg35
g995
sbsS'trackerNumberingGeometryDB'
p1003
g0
(g7
g2
Ntp1004
Rp1005
(dp1006
g11
(lp1007
g89
ag549
asg14
I00
sg89
g0
(g78
g2
Ntp1008
Rp1009
(dp1010
g14
I00
sg32
I01
sg82
g93
sg15
I00
sbsg15
I00
sg16
I40
sg17
g18
sg34
g1003
sg549
g0
(g122
g2
Ntp1011
Rp1012
(dp1013
g14
I00
sg32
I01
sg82
I00
sg15
I00
sbsg35
S'TrackerGeometricDetESModule'
p1014
sbsS'_Process__name'
p1015
S'Treemaker'
p1016
sg739
g733
sg752
g915
sS'_cloneToObjectDict'
p1017
(dp1018
I46957392
g748
sI47026384
g575
sI46960080
g0
(g7
g2
Ntp1019
Rp1020
(dp1021
g11
(lp1022
g619
aS'LorentzAngleDeconvMode'
p1023
aS'LorentzAnglePeakMode'
p1024
asg14
I00
sg15
I00
sg16
I40
sg17
g18
sg619
g0
(g103
g2
Ntp1025
Rp1026
(dp1027
g14
I00
sg32
I01
sg15
I00
sg625
g0
(g78
g2
Ntp1028
Rp1029
(dp1030
g14
I00
sg32
I00
sg82
g93
sg15
I00
sbsg190
g0
(g78
g2
Ntp1031
Rp1032
(dp1033
g14
I00
sg32
I01
sg82
g632
sg15
I00
sbsg11
(lp1034
g190
ag625
asbsg34
S'siStripLorentzAngleDepESProducer'
p1035
sg1024
g0
(g103
g2
Ntp1036
Rp1037
(dp1038
g14
I00
sg32
I01
sg15
I00
sg625
g0
(g78
g2
Ntp1039
Rp1040
(dp1041
g14
I00
sg32
I00
sg82
g640
sg15
I00
sbsg190
g0
(g78
g2
Ntp1042
Rp1043
(dp1044
g14
I00
sg32
I01
sg82
S'SiStripLorentzAngleRcd'
p1045
sg15
I00
sbsg11
(lp1046
g190
ag625
asbsg35
S'SiStripLorentzAngleDepESProducer'
p1047
sg1023
g0
(g103
g2
Ntp1048
Rp1049
(dp1050
g14
I00
sg32
I01
sg15
I00
sg625
g0
(g78
g2
Ntp1051
Rp1052
(dp1053
g14
I00
sg32
I00
sg82
g652
sg15
I00
sbsg190
g0
(g78
g2
Ntp1054
Rp1055
(dp1056
g14
I00
sg32
I01
sg82
g1045
sg15
I00
sbsg11
(lp1057
g190
ag625
asbsbsI46867408
g959
sI46993040
g0
(g7
g2
Ntp1058
Rp1059
(dp1060
g11
(lp1061
S'version'
p1062
ag828
ag625
asg14
I00
sg15
I01
sg16
I40
sg17
g18
sg625
g0
(g78
g2
Ntp1063
Rp1064
(dp1065
g14
I00
sg32
I00
sg82
S'ParabolicMf'
p1066
sg15
I01
sbsg1062
g0
(g78
g2
Ntp1067
Rp1068
(dp1069
g14
I00
sg32
I01
sg82
S'Parabolic'
p1070
sg15
I00
sbsg828
g0
(g108
g2
Ntp1071
Rp1072
(dp1073
g14
I00
sg32
I01
sg82
I-1
sg15
I00
sbsg34
S'ParabolicParametrizedMagneticFieldProducer'
p1074
sg35
S'AutoParametrizedMagneticFieldProducer'
p1075
sbsI46888016
g0
(g7
g2
Ntp1076
Rp1077
(dp1078
g11
(lp1079
g101
asg14
I00
sg15
I00
sg16
I40
sg17
g18
sg34
S'ZdcGeometryFromDBEP'
p1080
sg101
g0
(g122
g2
Ntp1081
Rp1082
(dp1083
g14
I00
sg32
I01
sg82
I00
sg15
I00
sbsg35
g1080
sbsI47027344
g41
sI46875856
g299
sI47027280
g52
sI46783888
g799
sI46888336
g538
sI46876112
g997
sI47027856
g782
sI46888656
g606
sI47027984
g660
sI46868432
g0
(g7
g2
Ntp1084
Rp1085
(dp1086
g11
(lp1087
g962
aS'compatibiltyWith11'
p1088
asg14
I00
sg15
I00
sg16
I40
sg17
g18
sg962
g0
(g122
g2
Ntp1089
Rp1090
(dp1091
g14
I00
sg32
I00
sg82
I00
sg15
I00
sbsg1088
g0
(g122
g2
Ntp1092
Rp1093
(dp1094
g14
I00
sg32
I00
sg82
I01
sg15
I00
sbsg34
S'RPCGeometryESModule'
p1095
sg35
g1095
sbsI46876688
g0
(g7
g2
Ntp1096
Rp1097
(dp1098
g11
(lp1099
g101
ag102
asg14
I00
sg15
I01
sg16
I40
sg17
g18
sg102
g0
(g103
g2
Ntp1100
Rp1101
(dp1102
g14
I00
sg32
I01
sg15
I00
sg107
g0
(g108
g2
Ntp1103
Rp1104
(dp1105
g14
I00
sg32
I01
sg82
I3
sg15
I00
sbsg112
g0
(g108
g2
Ntp1106
Rp1107
(dp1108
g14
I00
sg32
I01
sg82
I2
sg15
I00
sbsg11
(lp1109
g107
ag112
ag117
asg117
g0
(g78
g2
Ntp1110
Rp1111
(dp1112
g14
I00
sg32
I01
sg82
g121
sg15
I00
sbsbsg34
S'HcalGeometryFromDBEP'
p1113
sg101
g0
(g122
g2
Ntp1114
Rp1115
(dp1116
g14
I00
sg32
I01
sg82
I01
sg15
I01
sbsg35
g1113
sbsI46987344
g0
(g7
g2
Ntp1117
Rp1118
(dp1119
g11
(lp1120
sg14
I00
sg15
I00
sg16
I40
sg17
g18
sg34
S'sistripconn'
p1121
sg35
S'SiStripConnectivity'
p1122
sbsI46889104
g0
(g7
g2
Ntp1123
Rp1124
(dp1125
g11
(lp1126
sg14
I00
sg15
I00
sg16
I40
sg17
g18
sg34
S'EcalElectronicsMappingBuilder'
p1127
sg35
g1127
sbsI47027472
g0
(g565
g2
Ntp1128
Rp1129
(dp1130
g14
I00
sg43
g0
(g44
g2
Ntp1131
Rp1132
(dp1133
g48
(lp1134
g165
asbsg15
I00
sg34
NsbsI47027216
g165
sI46889360
g582
sI46877200
g0
(g7
g2
Ntp1135
Rp1136
(dp1137
g11
(lp1138
sg14
I00
sg15
I00
sg16
I40
sg17
g18
sg34
S'HcalAlignmentEP'
p1139
sg35
g1139
sbsI46920080
g0
(g7
g2
Ntp1140
Rp1141
(dp1142
g11
(lp1143
g89
ag962
ag963
ag964
ag550
ag965
ag966
ag967
ag101
asg14
I00
sg89
g0
(g78
g2
Ntp1144
Rp1145
(dp1146
g14
I00
sg32
I01
sg82
g767
sg15
I01
sbsg15
I01
sg963
g0
(g122
g2
Ntp1147
Rp1148
(dp1149
g14
I00
sg32
I00
sg82
I00
sg15
I00
sbsg17
S'/cvmfs/cms.cern.ch/slc6_amd64_gcc493/cms/cmssw/CMSSW_7_6_3/python/Geometry/CSCGeometryBuilder/idealForDigiCscGeometryDB_cff.py'
p1150
sg964
g0
(g122
g2
Ntp1151
Rp1152
(dp1153
g14
I00
sg32
I01
sg82
I01
sg15
I00
sbsg550
g0
(g78
g2
Ntp1154
Rp1155
(dp1156
g14
I00
sg32
I01
sg82
g771
sg15
I01
sbsg965
g0
(g122
g2
Ntp1157
Rp1158
(dp1159
g14
I00
sg32
I01
sg82
I00
sg15
I00
sbsg962
g0
(g122
g2
Ntp1160
Rp1161
(dp1162
g14
I00
sg32
I01
sg82
I00
sg15
I00
sbsg16
I8
sg967
g0
(g122
g2
Ntp1163
Rp1164
(dp1165
g14
I00
sg32
I01
sg82
I00
sg15
I00
sbsg34
S'idealForDigiCSCGeometry'
p1166
sg966
g0
(g122
g2
Ntp1167
Rp1168
(dp1169
g14
I00
sg32
I01
sg82
I01
sg15
I00
sbsg101
g0
(g122
g2
Ntp1170
Rp1171
(dp1172
g14
I00
sg32
I01
sg82
I00
sg15
I01
sbsg35
g957
sbsI46869072
g808
sI46920912
g0
(g7
g2
Ntp1173
Rp1174
(dp1175
g11
(lp1176
g89
ag549
ag101
ag550
asg14
I00
sg89
g0
(g78
g2
Ntp1177
Rp1178
(dp1179
g14
I00
sg32
I01
sg82
g767
sg15
I01
sbsg15
I01
sg550
g0
(g78
g2
Ntp1180
Rp1181
(dp1182
g14
I00
sg32
I01
sg82
g771
sg15
I01
sbsg17
S'/cvmfs/cms.cern.ch/slc6_amd64_gcc493/cms/cmssw/CMSSW_7_6_3/python/Geometry/DTGeometryBuilder/idealForDigiDtGeometryDB_cff.py'
p1183
sg16
I8
sg34
S'idealForDigiDTGeometry'
p1184
sg549
g0
(g122
g2
Ntp1185
Rp1186
(dp1187
g14
I00
sg32
I01
sg82
I00
sg15
I00
sbsg101
g0
(g122
g2
Ntp1188
Rp1189
(dp1190
g14
I00
sg32
I01
sg82
I00
sg15
I01
sbsg35
g806
sbsI46959184
g0
(g7
g2
Ntp1191
Rp1192
(dp1193
g11
(lp1194
S'printDebug'
p1195
ag89
aS'APVGain'
p1196
aS'AutomaticNormalization'
p1197
asg14
I00
sg89
g0
(g78
g2
Ntp1198
Rp1199
(dp1200
g14
I00
sg32
I01
sg82
g93
sg15
I00
sbsg15
I00
sg1197
g0
(g122
g2
Ntp1201
Rp1202
(dp1203
g14
I00
sg32
I01
sg82
I00
sg15
I00
sbsg16
I40
sg1195
g0
(g122
g2
Ntp1204
Rp1205
(dp1206
g14
I00
sg32
I00
sg82
I00
sg15
I00
sbsg17
g18
sg1196
g0
(g185
g20
(lp1207
g0
(g103
g2
Ntp1208
Rp1209
(dp1210
g14
I00
sg32
I01
sg15
I00
sS'Label'
p1211
g0
(g78
g2
Ntp1212
Rp1213
(dp1214
g14
I00
sg32
I00
sg82
g93
sg15
I00
sbsS'Record'
p1215
g0
(g78
g2
Ntp1216
Rp1217
(dp1218
g14
I00
sg32
I01
sg82
S'SiStripApvGainRcd'
p1219
sg15
I00
sbsS'NormalizationFactor'
p1220
g0
(g170
g2
Ntp1221
Rp1222
(dp1223
g14
I00
sg32
I00
sg82
F1.0
sg15
I00
sbsg11
(lp1224
g1215
ag1220
ag1211
asbag0
(g103
g2
Ntp1225
Rp1226
(dp1227
g14
I00
sg32
I01
sg15
I00
sg1211
g0
(g78
g2
Ntp1228
Rp1229
(dp1230
g14
I00
sg32
I00
sg82
g93
sg15
I00
sbsg1215
g0
(g78
g2
Ntp1231
Rp1232
(dp1233
g14
I00
sg32
I01
sg82
S'SiStripApvGain2Rcd'
p1234
sg15
I00
sbsg1220
g0
(g170
g2
Ntp1235
Rp1236
(dp1237
g14
I00
sg32
I00
sg82
F1.0
sg15
I00
sbsg11
(lp1238
g1215
ag1220
ag1211
asbatp1239
Rp1240
(dp1241
g14
I00
sg32
I01
sg15
I00
sg33
I1
sbsg34
S'siStripGainESProducer'
p1242
sg35
S'SiStripGainESProducer'
p1243
sbsI46987984
g181
sI46922512
g875
sI46889872
g86
sI46869456
g1005
sI46877712
g98
sI46878672
g0
(g7
g2
Ntp1244
Rp1245
(dp1246
g11
(lp1247
S'Exclude'
p1248
ag89
ag102
asg14
I00
sg89
g0
(g78
g2
Ntp1249
Rp1250
(dp1251
g14
I00
sg32
I01
sg82
g93
sg15
I00
sbsg15
I00
sg16
I40
sg17
g18
sg102
g0
(g103
g2
Ntp1252
Rp1253
(dp1254
g14
I00
sg32
I01
sg15
I00
sg107
g0
(g108
g2
Ntp1255
Rp1256
(dp1257
g14
I00
sg32
I01
sg82
I3
sg15
I00
sbsg112
g0
(g108
g2
Ntp1258
Rp1259
(dp1260
g14
I00
sg32
I01
sg82
I2
sg15
I00
sbsg11
(lp1261
g107
ag112
ag117
asg117
g0
(g78
g2
Ntp1262
Rp1263
(dp1264
g14
I00
sg32
I01
sg82
S'HcalTopologyMode::LHC'
p1265
sg15
I00
sbsbsg34
S'hcalTopologyIdeal'
p1266
sg1248
g0
(g78
g2
Ntp1267
Rp1268
(dp1269
g14
I00
sg32
I00
sg82
g93
sg15
I00
sbsg35
S'HcalTopologyIdealEP'
p1270
sbsI46922640
g218
sI46992528
g825
sI47051280
g733
sI46890192
g0
(g7
g2
Ntp1271
Rp1272
(dp1273
g11
(lp1274
g89
asg14
I00
sg89
g0
(g78
g2
Ntp1275
Rp1276
(dp1277
g14
I00
sg32
I01
sg82
g93
sg15
I00
sbsg15
I00
sg16
I40
sg17
g18
sg34
S'hcalDDDRecConstants'
p1278
sg35
S'HcalDDDRecConstantsESModule'
p1279
sbsI46783760
g867
sI46875472
g9
sI46890384
g761
sI46987216
g847
sI46923536
g0
(g7
g2
Ntp1280
Rp1281
(dp1282
g11
(lp1283
sg14
I00
sg15
I00
sg16
I40
sg17
g18
sg34
S'EcalLaserCorrectionService'
p1284
sg35
g1284
sbsI46987856
g0
(g7
g2
Ntp1285
Rp1286
(dp1287
g11
(lp1288
sg14
I00
sg15
I00
sg16
I40
sg17
g18
sg34
S'CastorDbProducer'
p1289
sg35
g1289
sbsI46870096
g0
(g7
g2
Ntp1290
Rp1291
(dp1292
g11
(lp1293
sg14
I00
sg15
I00
sg16
I40
sg17
g18
sg34
S'GlobalTrackingGeometryESProducer'
p1294
sg35
g1294
sbsI46985424
g616
sI46870160
g0
(g7
g2
Ntp1295
Rp1296
(dp1297
g11
(lp1298
sg14
I00
sg15
I00
sg16
I40
sg17
g18
sg34
S'TrackerRecoGeometryESProducer'
p1299
sg35
g1299
sbsI46923728
g0
(g7
g2
Ntp1300
Rp1301
(dp1302
g11
(lp1303
S'file'
p1304
aS'dump'
p1305
asg14
I00
sg15
I00
sg1305
g0
(g19
g20
(lp1306
g93
atp1307
Rp1308
(dp1309
g14
I00
sg32
I00
sg15
I00
sg33
I1
sbsg16
I40
sg17
g18
sg1304
g0
(g78
g2
Ntp1310
Rp1311
(dp1312
g14
I00
sg32
I00
sg82
g93
sg15
I00
sbsg34
S'hcal_db_producer'
p1313
sg35
S'HcalDbProducer'
p1314
sbsI46870288
g0
(g7
g2
Ntp1315
Rp1316
(dp1317
g11
(lp1318
g89
asg14
I00
sg89
g0
(g78
g2
Ntp1319
Rp1320
(dp1321
g14
I00
sg32
I01
sg82
g93
sg15
I00
sbsg15
I00
sg16
I40
sg17
g18
sg34
S'trackerTopology'
p1322
sg35
S'TrackerTopologyEP'
p1323
sbsI46989136
g0
(g7
g2
Ntp1324
Rp1325
(dp1326
g11
(lp1327
g89
aS'PrintDebugOutput'
p1328
aS'ThresholdForReducedGranularity'
p1329
aS'UseEmptyRunInfo'
p1330
aS'ReduceGranularity'
p1331
ag184
asg14
I00
sg89
g0
(g78
g2
Ntp1332
Rp1333
(dp1334
g14
I00
sg32
I01
sg82
g93
sg15
I00
sbsg15
I01
sg16
I40
sg17
g18
sg1329
g0
(g170
g2
Ntp1335
Rp1336
(dp1337
g14
I00
sg32
I01
sg82
F0.3
sg15
I00
sbsg34
S'siStripQualityESProducer'
p1338
sg1330
g0
(g122
g2
Ntp1339
Rp1340
(dp1341
g14
I00
sg32
I01
sg82
I00
sg15
I00
sbsg1331
g0
(g122
g2
Ntp1342
Rp1343
(dp1344
g14
I00
sg32
I01
sg82
I00
sg15
I00
sbsg184
g0
(g185
g20
(lp1345
g0
(g103
g2
Ntp1346
Rp1347
(dp1348
g14
I00
sg32
I01
sg15
I00
sg190
g0
(g78
g2
Ntp1349
Rp1350
(dp1351
g14
I00
sg32
I01
sg82
S'SiStripDetVOffRcd'
p1352
sg15
I00
sbsg195
g0
(g78
g2
Ntp1353
Rp1354
(dp1355
g14
I00
sg32
I01
sg82
g93
sg15
I00
sbsg11
(lp1356
g190
ag195
asbag0
(g103
g2
Ntp1357
Rp1358
(dp1359
g14
I00
sg32
I01
sg15
I00
sg190
g0
(g78
g2
Ntp1360
Rp1361
(dp1362
g14
I00
sg32
I01
sg82
S'SiStripDetCablingRcd'
p1363
sg15
I00
sbsg195
g0
(g78
g2
Ntp1364
Rp1365
(dp1366
g14
I00
sg32
I01
sg82
g93
sg15
I00
sbsg11
(lp1367
g190
ag195
asbag0
(g103
g2
Ntp1368
Rp1369
(dp1370
g14
I00
sg32
I01
sg15
I00
sg190
g0
(g78
g2
Ntp1371
Rp1372
(dp1373
g14
I00
sg32
I01
sg82
S'RunInfoRcd'
p1374
sg15
I00
sbsg195
g0
(g78
g2
Ntp1375
Rp1376
(dp1377
g14
I00
sg32
I01
sg82
g93
sg15
I00
sbsg11
(lp1378
g190
ag195
asbag0
(g103
g2
Ntp1379
Rp1380
(dp1381
g14
I00
sg32
I01
sg15
I00
sg190
g0
(g78
g2
Ntp1382
Rp1383
(dp1384
g14
I00
sg32
I01
sg82
S'SiStripBadChannelRcd'
p1385
sg15
I00
sbsg195
g0
(g78
g2
Ntp1386
Rp1387
(dp1388
g14
I00
sg32
I01
sg82
g93
sg15
I00
sbsg11
(lp1389
g190
ag195
asbag0
(g103
g2
Ntp1390
Rp1391
(dp1392
g14
I00
sg32
I01
sg15
I00
sg190
g0
(g78
g2
Ntp1393
Rp1394
(dp1395
g14
I00
sg32
I01
sg82
S'SiStripBadFiberRcd'
p1396
sg15
I00
sbsg195
g0
(g78
g2
Ntp1397
Rp1398
(dp1399
g14
I00
sg32
I01
sg82
g93
sg15
I00
sbsg11
(lp1400
g190
ag195
asbag0
(g103
g2
Ntp1401
Rp1402
(dp1403
g14
I00
sg32
I01
sg15
I00
sg190
g0
(g78
g2
Ntp1404
Rp1405
(dp1406
g14
I00
sg32
I01
sg82
S'SiStripBadModuleRcd'
p1407
sg15
I00
sbsg195
g0
(g78
g2
Ntp1408
Rp1409
(dp1410
g14
I00
sg32
I01
sg82
g93
sg15
I00
sbsg11
(lp1411
g190
ag195
asbag0
(g103
g2
Ntp1412
Rp1413
(dp1414
g14
I00
sg32
I01
sg15
I00
sg190
g0
(g78
g2
Ntp1415
Rp1416
(dp1417
g14
I00
sg32
I01
sg82
S'SiStripBadStripRcd'
p1418
sg15
I00
sbsg195
g0
(g78
g2
Ntp1419
Rp1420
(dp1421
g14
I00
sg32
I01
sg82
g93
sg15
I00
sbsg11
(lp1422
g190
ag195
asbatp1423
Rp1424
(dp1425
g14
I00
sg32
I01
sg15
I00
sg33
I1
sbsg35
S'SiStripQualityESProducer'
p1426
sg1328
g0
(g122
g2
Ntp1427
Rp1428
(dp1429
g14
I00
sg32
I01
sg82
I00
sg15
I00
sbsbsI46875984
g0
(g7
g2
Ntp1430
Rp1431
(dp1432
g11
(lp1433
g101
asg14
I00
sg15
I01
sg16
I40
sg17
g18
sg34
S'EcalPreshowerGeometryFromDBEP'
p1434
sg101
g0
(g122
g2
Ntp1435
Rp1436
(dp1437
g14
I00
sg32
I01
sg82
I01
sg15
I01
sbsg35
g1434
sbsI46870480
g294
sI47027024
g567
sI46869904
g546
sI46919824
g0
(g7
g2
Ntp1438
Rp1439
(dp1440
g11
(lp1441
g89
asg14
I00
sg89
g0
(g78
g2
Ntp1442
Rp1443
(dp1444
g14
I00
sg32
I01
sg82
g771
sg15
I01
sbsg15
I01
sg16
I5
sg17
S'/cvmfs/cms.cern.ch/slc6_amd64_gcc493/cms/cmssw/CMSSW_7_6_3/python/Alignment/CommonAlignmentProducer/fakeForIdealAlignmentProducer_cfi.py'
p1445
sg34
S'fakeForIdealAlignment'
p1446
sg35
S'FakeAlignmentProducer'
p1447
sbsI46956752
g128
sI46875024
g842
sI46887376
g0
(g7
g2
Ntp1448
Rp1449
(dp1450
g11
(lp1451
sg14
I00
sg15
I00
sg16
I40
sg17
g18
sg34
S'CaloTowerTopologyEP'
p1452
sg35
g1452
sbsI46985744
g0
(g7
g2
Ntp1453
Rp1454
(dp1455
g11
(lp1456
S'ComponentType'
p1457
ag851
aS'parameters'
p1458
asg14
I00
sg15
I00
sg1458
g0
(g103
g2
Ntp1459
Rp1460
(dp1461
g14
I00
sg32
I01
sg15
I00
sg11
(lp1462
sbsg16
I40
sg851
g0
(g78
g2
Ntp1463
Rp1464
(dp1465
g14
I00
sg32
I01
sg82
S'stripCPE'
p1466
sg15
I00
sbsg1457
g0
(g78
g2
Ntp1467
Rp1468
(dp1469
g14
I00
sg32
I01
sg82
S'SimpleStripCPE'
p1470
sg15
I00
sbsg17
g18
sg34
S'stripCPEESProducer'
p1471
sg35
S'StripCPEESProducer'
p1472
sbsI46985872
g0
(g7
g2
Ntp1473
Rp1474
(dp1475
g11
(lp1476
g1457
ag851
ag1458
asg14
I00
sg15
I01
sg1458
g0
(g103
g2
Ntp1477
Rp1478
(dp1479
g14
I00
sg32
I01
sS'maxChgOneMIP'
p1480
g0
(g170
g2
Ntp1481
Rp1482
(dp1483
g14
I00
sg32
I01
sg82
F6000.0
sg15
I00
sbsS'mLC_P2'
p1484
g0
(g170
g2
Ntp1485
Rp1486
(dp1487
g14
I00
sg32
I01
sg82
F0.3
sg15
I00
sbsS'mLC_P1'
p1488
g0
(g170
g2
Ntp1489
Rp1490
(dp1491
g14
I00
sg32
I01
sg82
F0.618
sg15
I00
sbsS'mLC_P0'
p1492
g0
(g170
g2
Ntp1493
Rp1494
(dp1495
g14
I00
sg32
I01
sg82
F-0.326
sg15
I00
sbsS'useLegacyError'
p1496
g0
(g122
g2
Ntp1497
Rp1498
(dp1499
g14
I00
sg32
I01
sg82
I00
sg15
I00
sbsS'mTIB_P1'
p1500
g0
(g170
g2
Ntp1501
Rp1502
(dp1503
g14
I00
sg32
I01
sg82
F0.202
sg15
I00
sbsS'mTEC_P1'
p1504
g0
(g170
g2
Ntp1505
Rp1506
(dp1507
g14
I00
sg32
I01
sg82
F0.471
sg15
I00
sbsS'mTEC_P0'
p1508
g0
(g170
g2
Ntp1509
Rp1510
(dp1511
g14
I00
sg32
I01
sg82
F-1.885
sg15
I00
sbsS'mTOB_P0'
p1512
g0
(g170
g2
Ntp1513
Rp1514
(dp1515
g14
I00
sg32
I01
sg82
F-1.026
sg15
I00
sbsS'mTOB_P1'
p1516
g0
(g170
g2
Ntp1517
Rp1518
(dp1519
g14
I00
sg32
I01
sg82
F0.253
sg15
I00
sbsS'mTIB_P0'
p1520
g0
(g170
g2
Ntp1521
Rp1522
(dp1523
g14
I00
sg32
I01
sg82
F-0.742
sg15
I00
sbsg11
(lp1524
g1480
ag1484
ag1488
ag1492
ag1496
ag1504
ag1508
ag1512
ag1516
ag1520
ag1500
aS'mTID_P0'
p1525
aS'mTID_P1'
p1526
asg1525
g0
(g170
g2
Ntp1527
Rp1528
(dp1529
g14
I00
sg32
I01
sg82
F-1.427
sg15
I00
sbsg1526
g0
(g170
g2
Ntp1530
Rp1531
(dp1532
g14
I00
sg32
I01
sg82
F0.433
sg15
I00
sbsg15
I00
sbsg16
I4
sg851
g0
(g78
g2
Ntp1533
Rp1534
(dp1535
g14
I00
sg32
I01
sg82
S'StripCPEfromTrackAngle'
p1536
sg15
I00
sbsg1457
g0
(g78
g2
Ntp1537
Rp1538
(dp1539
g14
I00
sg32
I01
sg82
g1536
sg15
I00
sbsg17
S'/cvmfs/cms.cern.ch/slc6_amd64_gcc493/cms/cmssw/CMSSW_7_6_3/python/RecoLocalTracker/SiStripRecHitConverter/StripCPEfromTrackAngle_cfi.py'
p1540
sg34
S'StripCPEfromTrackAngleESProducer'
p1541
sg35
g1472
sbsI46957328
g915
sI47027536
g725
ssg1242
g1192
sg1095
g1085
sg1121
g1118
sg1080
g1077
sg1299
g1296
sg163
g165
sg1035
g1020
sg1452
g1449
sg1074
g1059
sg578
g575
sg1471
g1454
sg1322
g1316
sg1113
g1097
sg873
g875
sg745
g748
sg1127
g1124
sg1541
g1474
sS'_Process__aliases'
p1542
(dp1543
sg1294
g1291
sg1284
g1281
sg1139
g1136
sg1434
g1431
sg1278
g1272
sg1289
g1286
sg1166
g1141
sg1313
g1301
sg1266
g1245
sS'_Process__schedule'
p1544
g741
sg1338
g1325
sg1184
g1174
sS'_Process__modifiers'
p1545
(tsS'_Process__filters'
p1546
(dp1547
sS'_Process__esproducers'
p1548
(dp1549
g6
g9
sg1284
g1281
sg1299
g1296
sg823
g825
sg1541
g1474
sg536
g538
sg840
g842
sg1294
g1291
sg544
g546
sg1035
g1020
sg1266
g1245
sg1139
g1136
sg1434
g1431
sg1289
g1286
sg1278
g1272
sg957
g959
sg995
g997
sg1003
g1005
sg1127
g1124
sg604
g606
sg1166
g1141
sg96
g98
sg614
g616
sg1313
g1301
sg1242
g1192
sg845
g847
sg1095
g1085
sg1184
g1174
sg1080
g1077
sg806
g808
sg1338
g1325
sg1121
g1118
sg1074
g1059
sg759
g761
sg1452
g1449
sg179
g181
sg1471
g1454
sg84
g86
sg292
g294
sg1322
g1316
sg297
g299
sg1446
g1439
sg1113
g1097
ssS'_Process__partialschedules'
p1550
(dp1551
sg1446
g1439
sb.