ccopy_reg
_reconstructor
p0
(cFWCore.ParameterSet.Config
Process
p1
c__builtin__
object
p2
Ntp3
Rp4
(dp5
S'CaloGeometryBuilder'
p6
g0
(cFWCore.ParameterSet.Modules
ESProducer
p7
g2
Ntp8
Rp9
(dp10
S'_Parameterizable__parameterNames'
p11
(lp12
S'SelectedCalos'
p13
asS'_isFrozen'
p14
I00
sS'_isModified'
p15
I00
sS'_lineNumber'
p16
I40
sS'_filename'
p17
S'/cvmfs/cms.cern.ch/slc6_amd64_gcc493/cms/cmssw/CMSSW_7_6_3/python/FWCore/ParameterSet/Modules.py'
p18
sg13
g0
(cFWCore.ParameterSet.Types
vstring
p19
c__builtin__
list
p20
(lp21
S'HCAL'
p22
aS'ZDC'
p23
aS'CASTOR'
p24
aS'EcalBarrel'
p25
aS'EcalEndcap'
p26
aS'EcalPreshower'
p27
aS'TOWER'
p28
atp29
Rp30
(dp31
g14
I00
sS'_ParameterTypeBase__isTracked'
p32
I01
sg15
I00
sS'_nPerLine'
p33
I1
sbsS'_Labelable__label'
p34
g6
sS'_TypedParameterizable__type'
p35
g6
sbsS'_Process__sequences'
p36
(dp37
S'initialSequence'
p38
g0
(cFWCore.ParameterSet.SequenceTypes
Sequence
p39
g2
Ntp40
Rp41
(dp42
g14
I00
sS'_seq'
p43
g0
(cFWCore.ParameterSet.SequenceTypes
_SequenceCollection
p44
g2
Ntp45
Rp46
(dp47
S'_collection'
p48
(lp49
g0
(cFWCore.ParameterSet.Modules
EDProducer
p50
g2
Ntp51
Rp52
(dp53
g11
(lp54
sg14
I00
sg15
I00
sg16
I42
sg17
S'/afs/cern.ch/work/i/ivanp/CFF_SOFT/CMSSW_7_6_3/python/CommonFSQFramework/Core/customizePAT.py'
p55
sg34
S'initialCntr'
p56
sg35
S'EventCountProducer'
p57
sbasbsg15
I00
sg34
g38
sbssS'_Process__source'
p58
g0
(cFWCore.ParameterSet.Modules
Source
p59
g2
Ntp60
Rp61
(dp62
g11
(lp63
S'fileNames'
p64
asg14
I00
sg15
I00
sg16
I175
sg17
g18
sg64
g0
(g19
g20
(lp65
S'/store/mc/RunIIFall15MiniAODv2/MinBias_TuneCUETHS1-13TeV-herwigpp/MINIAODSIM/noPU_castor_76X_mcRun2_asymptotic_v12-v1/100000/0006DB23-C0E8-E611-A12A-008CFA197DC4.root'
p66
atp67
Rp68
(dp69
g14
I00
sg32
I00
sg15
I00
sg33
I1
sbsg35
S'PoolSource'
p70
sbsS'TFileService'
p71
g0
(cFWCore.ParameterSet.Modules
Service
p72
g2
Ntp73
Rp74
(dp75
g11
(lp76
S'fileName'
p77
asg14
I00
sg15
I00
sg16
I10
sg17
g18
sg77
g0
(cFWCore.ParameterSet.Types
string
p78
g2
Ntp79
Rp80
(dp81
g14
I00
sg32
I01
sS'_value'
p82
S'trees.root'
p83
sg15
I00
sbsg35
g71
sbsS'hcalDDDSimConstants'
p84
g0
(g7
g2
Ntp85
Rp86
(dp87
g11
(lp88
S'appendToDataLabel'
p89
asg14
I00
sg89
g0
(g78
g2
Ntp90
Rp91
(dp92
g14
I00
sg32
I01
sg82
S''
p93
sg15
I00
sbsg15
I00
sg16
I40
sg17
g18
sg34
g84
sg35
S'HcalDDDSimConstantsESModule'
p94
sbsS'source'
p95
g61
sS'CaloTowerGeometryFromDBEP'
p96
g0
(g7
g2
Ntp97
Rp98
(dp99
g11
(lp100
S'applyAlignment'
p101
aS'hcalTopologyConstants'
p102
asg14
I00
sg15
I01
sg16
I40
sg17
g18
sg102
g0
(cFWCore.ParameterSet.Types
PSet
p103
g2
Ntp104
Rp105
(dp106
g14
I00
sg32
I01
sg15
I00
sS'maxDepthHE'
p107
g0
(cFWCore.ParameterSet.Types
int32
p108
g2
Ntp109
Rp110
(dp111
g14
I00
sg32
I01
sg82
I3
sg15
I00
sbsS'maxDepthHB'
p112
g0
(g108
g2
Ntp113
Rp114
(dp115
g14
I00
sg32
I01
sg82
I2
sg15
I00
sbsg11
(lp116
g107
ag112
aS'mode'
p117
asg117
g0
(g78
g2
Ntp118
Rp119
(dp120
g14
I00
sg32
I01
sg82
S'HcalTopologyMode::LHC'
p121
sg15
I00
sbsbsg34
g96
sg101
g0
(cFWCore.ParameterSet.Types
bool
p122
g2
Ntp123
Rp124
(dp125
g14
I00
sg32
I01
sg82
I00
sg15
I00
sbsg35
g96
sbsS'HcalReLabel'
p126
g0
(g103
g2
Ntp127
Rp128
(dp129
g14
I00
sg32
I01
sg15
I00
sS'RelabelRules'
p130
g0
(g103
g2
Ntp131
Rp132
(dp133
g14
I00
sg32
I00
sg15
I00
sS'Eta16'
p134
g0
(cFWCore.ParameterSet.Types
vint32
p135
g20
(lp136
I1
aI1
aI2
aI2
aI2
aI2
aI2
aI2
aI2
aI3
aI3
aI3
aI3
aI3
aI3
aI3
aI3
aI3
aI3
atp137
Rp138
(dp139
g14
I00
sg32
I00
sg15
I00
sbsS'Eta17'
p140
g0
(g135
g20
(lp141
I1
aI1
aI2
aI2
aI3
aI3
aI3
aI4
aI4
aI4
aI4
aI4
aI5
aI5
aI5
aI5
aI5
aI5
aI5
atp142
Rp143
(dp144
g14
I00
sg32
I00
sg15
I00
sbsS'CorrectPhi'
p145
g0
(g122
g2
Ntp146
Rp147
(dp148
g14
I00
sg32
I00
sg82
I00
sg15
I00
sbsg11
(lp149
g134
ag140
aS'Eta1'
p150
ag145
asg150
g0
(g135
g20
(lp151
I1
aI2
aI2
aI2
aI3
aI3
aI3
aI3
aI3
aI3
aI3
aI3
aI3
aI3
aI3
aI3
aI3
aI3
aI3
atp152
Rp153
(dp154
g14
I00
sg32
I00
sg15
I00
sbsbsg11
(lp155
g130
aS'RelabelHits'
p156
asg34
g126
sg156
g0
(g122
g2
Ntp157
Rp158
(dp159
g14
I00
sg32
I00
sg82
I00
sg15
I00
sbsbsS'_Process__InExtendCall'
p160
I00
sS'_Process__producers'
p161
(dp162
S'XS'
p163
g0
(g50
g2
Ntp164
Rp165
(dp166
g11
(lp167
S'value'
p168
aS'provHack'
p169
asg14
I00
sg15
I01
sg16
I39
sg17
g55
sg168
g0
(cFWCore.ParameterSet.Types
double
p170
g2
Ntp171
Rp172
(dp173
g14
I00
sg32
I01
sg82
I-1
sg15
I00
sbsg169
g0
(g78
g2
Ntp174
Rp175
(dp176
g14
I00
sg32
I01
sg82
S'\n################################################################################\nAna version: decorrelations_mc_pythia8\nXS = -1\nisData = False\n################################################################################\n'
p177
sg15
I00
sbsg34
g163
sg35
S'DoubleProducer'
p178
sbsg56
g52
ssS'siPixelQualityESProducer'
p179
g0
(g7
g2
Ntp180
Rp181
(dp182
g11
(lp183
S'ListOfRecordToMerge'
p184
asg14
I00
sg15
I01
sg16
I40
sg17
g18
sg184
g0
(cFWCore.ParameterSet.Types
VPSet
p185
g20
(lp186
g0
(g103
g2
Ntp187
Rp188
(dp189
g14
I00
sg32
I01
sg15
I00
sS'record'
p190
g0
(g78
g2
Ntp191
Rp192
(dp193
g14
I00
sg32
I01
sg82
S'SiPixelQualityFromDbRcd'
p194
sg15
I00
sbsS'tag'
p195
g0
(g78
g2
Ntp196
Rp197
(dp198
g14
I00
sg32
I01
sg82
g93
sg15
I00
sbsg11
(lp199
g190
ag195
asbag0
(g103
g2
Ntp200
Rp201
(dp202
g14
I00
sg32
I01
sg15
I00
sg190
g0
(g78
g2
Ntp203
Rp204
(dp205
g14
I00
sg32
I01
sg82
S'SiPixelDetVOffRcd'
p206
sg15
I00
sbsg195
g0
(g78
g2
Ntp207
Rp208
(dp209
g14
I00
sg32
I01
sg82
g93
sg15
I00
sbsg11
(lp210
g190
ag195
asbatp211
Rp212
(dp213
g14
I00
sg32
I01
sg15
I00
sg33
I1
sbsg34
g179
sg35
S'SiPixelQualityESProducer'
p214
sbsS'GlobalTag'
p215
g0
(cFWCore.ParameterSet.Modules
ESSource
p216
g2
Ntp217
Rp218
(dp219
g11
(lp220
S'DBParameters'
p221
aS'toGet'
p222
aS'connect'
p223
aS'globaltag'
p224
asg14
I00
sg15
I01
sg224
g0
(g78
g2
Ntp225
Rp226
(dp227
g14
I00
sg32
I01
sg82
S'76X_mcRun2_asymptotic_RunIIFall15DR76_v1'
p228
sg15
I01
sbsg16
I11
sg17
S'/cvmfs/cms.cern.ch/slc6_amd64_gcc493/cms/cmssw/CMSSW_7_6_3/python/Configuration/StandardSequences/FrontierConditions_GlobalTag_cfi.py'
p229
sg222
g0
(g185
g20
(lp230
tp231
Rp232
(dp233
g14
I00
sg32
I01
sg15
I00
sg33
I1
sbsg221
g0
(g103
g2
Ntp234
Rp235
(dp236
g14
I00
sg32
I01
sS'authenticationPath'
p237
g0
(g78
g2
Ntp238
Rp239
(dp240
g14
I00
sg32
I00
sg82
g93
sg15
I00
sbsS'connectionRetrialPeriod'
p241
g0
(g108
g2
Ntp242
Rp243
(dp244
g14
I00
sg32
I00
sg82
I10
sg15
I00
sbsg15
I00
sS'idleConnectionCleanupPeriod'
p245
g0
(g108
g2
Ntp246
Rp247
(dp248
g14
I00
sg32
I00
sg82
I10
sg15
I00
sbsS'messageLevel'
p249
g0
(g108
g2
Ntp250
Rp251
(dp252
g14
I00
sg32
I00
sg82
I0
sg15
I00
sbsS'enablePoolAutomaticCleanUp'
p253
g0
(g122
g2
Ntp254
Rp255
(dp256
g14
I00
sg32
I00
sg82
I00
sg15
I00
sbsS'enableConnectionSharing'
p257
g0
(g122
g2
Ntp258
Rp259
(dp260
g14
I00
sg32
I00
sg82
I01
sg15
I00
sbsS'enableReadOnlySessionOnUpdateConnection'
p261
g0
(g122
g2
Ntp262
Rp263
(dp264
g14
I00
sg32
I00
sg82
I00
sg15
I00
sbsg11
(lp265
g237
ag261
ag245
ag249
ag253
ag257
aS'connectionRetrialTimeOut'
p266
aS'connectionTimeOut'
p267
aS'authenticationSystem'
p268
ag241
asg267
g0
(g108
g2
Ntp269
Rp270
(dp271
g14
I00
sg32
I00
sg82
I60
sg15
I00
sbsg268
g0
(g108
g2
Ntp272
Rp273
(dp274
g14
I00
sg32
I00
sg82
I0
sg15
I00
sbsg266
g0
(g108
g2
Ntp275
Rp276
(dp277
g14
I00
sg32
I00
sg82
I60
sg15
I00
sbsbsg223
g0
(g78
g2
Ntp278
Rp279
(dp280
g14
I00
sg32
I01
sg82
S'frontier://FrontierProd/CMS_CONDITIONS'
p281
sg15
I00
sbsg34
g215
sg35
S'PoolDBESSource'
p282
sbsS'_Process__endpaths'
p283
g0
(cFWCore.ParameterSet.DictTypes
SortedKeysDict
p284
c__builtin__
dict
p285
(dp286
tp287
Rp288
(dp289
S'list'
p290
(lp291
sbsS'MuonDetLayerGeometryESProducer'
p292
g0
(g7
g2
Ntp293
Rp294
(dp295
g11
(lp296
sg14
I00
sg15
I00
sg16
I40
sg17
g18
sg34
g292
sg35
g292
sbsg56
g52
sS'EcalEndcapGeometryFromDBEP'
p297
g0
(g7
g2
Ntp298
Rp299
(dp300
g11
(lp301
g101
asg14
I00
sg15
I01
sg16
I40
sg17
g18
sg34
g297
sg101
g0
(g122
g2
Ntp302
Rp303
(dp304
g14
I00
sg32
I01
sg82
I01
sg15
I01
sbsg35
g297
sbsS'MessageLogger'
p305
g0
(g72
g2
Ntp306
Rp307
(dp308
g14
I00
sS'suppressInfo'
p309
g0
(g19
g20
(lp310
tp311
Rp312
(dp313
g14
I00
sg32
I00
sg15
I00
sg33
I1
sbsS'suppressDebug'
p314
g0
(g19
g20
(lp315
tp316
Rp317
(dp318
g14
I00
sg32
I00
sg15
I00
sg33
I1
sbsS'cout'
p319
g0
(g103
g2
Ntp320
Rp321
(dp322
g14
I00
sg32
I00
sS'placeholder'
p323
g0
(g122
g2
Ntp324
Rp325
(dp326
g14
I00
sg32
I00
sg82
I01
sg15
I00
sbsg15
I00
sg11
(lp327
g323
asbsg16
I10
sS'debugModules'
p328
g0
(g19
g20
(lp329
tp330
Rp331
(dp332
g14
I00
sg32
I00
sg15
I00
sg33
I1
sbsg35
g305
sS'fwkJobReports'
p333
g0
(g19
g20
(lp334
S'FrameworkJobReport'
p335
atp336
Rp337
(dp338
g14
I00
sg32
I00
sg15
I00
sg33
I1
sbsg11
(lp339
g309
aS'debugs'
p340
ag314
ag319
aS'cerr_stats'
p341
aS'warnings'
p342
aS'default'
p343
aS'statistics'
p344
aS'cerr'
p345
ag335
aS'suppressWarning'
p346
aS'errors'
p347
aS'destinations'
p348
ag328
aS'infos'
p349
aS'categories'
p350
ag333
asg344
g0
(g19
g20
(lp351
g341
atp352
Rp353
(dp354
g14
I00
sg32
I00
sg15
I00
sg33
I1
sbsg17
g18
sg348
g0
(g19
g20
(lp355
g342
ag347
ag349
ag340
ag319
ag345
atp356
Rp357
(dp358
g14
I00
sg32
I00
sg15
I00
sg33
I1
sbsg340
g0
(g103
g2
Ntp359
Rp360
(dp361
g14
I00
sg32
I00
sg323
g0
(g122
g2
Ntp362
Rp363
(dp364
g14
I00
sg32
I00
sg82
I01
sg15
I00
sbsg15
I00
sg11
(lp365
g323
asbsg342
g0
(g103
g2
Ntp366
Rp367
(dp368
g14
I00
sg32
I00
sg323
g0
(g122
g2
Ntp369
Rp370
(dp371
g14
I00
sg32
I00
sg82
I01
sg15
I00
sbsg15
I00
sg11
(lp372
g323
asbsg347
g0
(g103
g2
Ntp373
Rp374
(dp375
g14
I00
sg32
I00
sg323
g0
(g122
g2
Ntp376
Rp377
(dp378
g14
I00
sg32
I00
sg82
I01
sg15
I00
sbsg15
I00
sg11
(lp379
g323
asbsg335
g0
(g103
g2
Ntp380
Rp381
(dp382
g14
I00
sg32
I00
sg15
I00
sg343
g0
(g103
g2
Ntp383
Rp384
(dp385
g14
I00
sg32
I00
sS'limit'
p386
g0
(g108
g2
Ntp387
Rp388
(dp389
g14
I00
sg32
I00
sg82
I0
sg15
I00
sbsg15
I00
sg11
(lp390
g386
asbsS'FwkJob'
p391
g0
(g103
g2
Ntp392
Rp393
(dp394
g14
I00
sg32
I00
sg15
I00
sg386
g0
(g108
g2
Ntp395
Rp396
(dp397
g14
I00
sg32
I00
sg82
I10000000
sg15
I00
sbsg11
(lp398
S'optionalPSet'
p399
ag386
asg399
g0
(g122
g2
Ntp400
Rp401
(dp402
g14
I00
sg32
I00
sg82
I01
sg15
I00
sbsbsg11
(lp403
g343
ag399
ag391
asg399
g0
(g122
g2
Ntp404
Rp405
(dp406
g14
I00
sg32
I00
sg82
I01
sg15
I00
sbsbsg346
g0
(g19
g20
(lp407
tp408
Rp409
(dp410
g14
I00
sg32
I00
sg15
I00
sg33
I1
sbsg349
g0
(g103
g2
Ntp411
Rp412
(dp413
g14
I00
sg32
I00
sg15
I00
sS'Root_NoDictionary'
p414
g0
(g103
g2
Ntp415
Rp416
(dp417
g14
I00
sg32
I00
sg15
I00
sg386
g0
(g108
g2
Ntp418
Rp419
(dp420
g14
I00
sg32
I00
sg82
I0
sg15
I00
sbsg11
(lp421
g399
ag386
asg399
g0
(g122
g2
Ntp422
Rp423
(dp424
g14
I00
sg32
I00
sg82
I01
sg15
I00
sbsbsg11
(lp425
g399
ag414
ag323
asg399
g0
(g122
g2
Ntp426
Rp427
(dp428
g14
I00
sg32
I00
sg82
I01
sg15
I00
sbsg323
g0
(g122
g2
Ntp429
Rp430
(dp431
g14
I00
sg32
I00
sg82
I01
sg15
I00
sbsbsg350
g0
(g19
g20
(lp432
g391
aS'FwkReport'
p433
aS'FwkSummary'
p434
ag414
atp435
Rp436
(dp437
g14
I00
sg32
I00
sg15
I00
sg33
I1
sbsg15
I00
sg341
g0
(g103
g2
Ntp438
Rp439
(dp440
g14
I00
sg32
I00
sg15
I00
sg399
g0
(g122
g2
Ntp441
Rp442
(dp443
g14
I00
sg32
I00
sg82
I01
sg15
I00
sbsg11
(lp444
S'threshold'
p445
aS'output'
p446
ag399
asg445
g0
(g78
g2
Ntp447
Rp448
(dp449
g14
I00
sg32
I00
sg82
S'WARNING'
p450
sg15
I00
sbsg446
g0
(g78
g2
Ntp451
Rp452
(dp453
g14
I00
sg32
I00
sg82
g345
sg15
I00
sbsbsg343
g0
(g103
g2
Ntp454
Rp455
(dp456
g14
I00
sg32
I00
sg15
I00
sg11
(lp457
sbsg345
g0
(g103
g2
Ntp458
Rp459
(dp460
g14
I00
sg32
I00
sS'noTimeStamps'
p461
g0
(g122
g2
Ntp462
Rp463
(dp464
g14
I00
sg32
I00
sg82
I00
sg15
I00
sbsg433
g0
(g103
g2
Ntp465
Rp466
(dp467
g14
I00
sg32
I00
sg15
I01
sS'reportEvery'
p468
g0
(g108
g2
Ntp469
Rp470
(dp471
g14
I00
sg32
I00
sg82
I1000
sg15
I01
sbsg386
g0
(g108
g2
Ntp472
Rp473
(dp474
g14
I00
sg32
I00
sg82
I10000000
sg15
I00
sbsg11
(lp475
g468
ag399
ag386
asg399
g0
(g122
g2
Ntp476
Rp477
(dp478
g14
I00
sg32
I00
sg82
I01
sg15
I00
sbsbsg15
I00
sg343
g0
(g103
g2
Ntp479
Rp480
(dp481
g14
I00
sg32
I00
sg386
g0
(g108
g2
Ntp482
Rp483
(dp484
g14
I00
sg32
I00
sg82
I10000000
sg15
I00
sbsg15
I00
sg11
(lp485
g386
asbsg414
g0
(g103
g2
Ntp486
Rp487
(dp488
g14
I00
sg32
I00
sg15
I00
sg386
g0
(g108
g2
Ntp489
Rp490
(dp491
g14
I00
sg32
I00
sg82
I0
sg15
I00
sbsg11
(lp492
g399
ag386
asg399
g0
(g122
g2
Ntp493
Rp494
(dp495
g14
I00
sg32
I00
sg82
I01
sg15
I00
sbsbsS'INFO'
p496
g0
(g103
g2
Ntp497
Rp498
(dp499
g14
I00
sg32
I00
sg386
g0
(g108
g2
Ntp500
Rp501
(dp502
g14
I00
sg32
I00
sg82
I0
sg15
I00
sbsg15
I00
sg11
(lp503
g386
asbsg399
g0
(g122
g2
Ntp504
Rp505
(dp506
g14
I00
sg32
I00
sg82
I01
sg15
I00
sbsg391
g0
(g103
g2
Ntp507
Rp508
(dp509
g14
I00
sg32
I00
sg15
I00
sg386
g0
(g108
g2
Ntp510
Rp511
(dp512
g14
I00
sg32
I00
sg82
I0
sg15
I00
sbsg11
(lp513
g399
ag386
asg399
g0
(g122
g2
Ntp514
Rp515
(dp516
g14
I00
sg32
I00
sg82
I01
sg15
I00
sbsbsg434
g0
(g103
g2
Ntp517
Rp518
(dp519
g14
I00
sg32
I00
sg15
I00
sg468
g0
(g108
g2
Ntp520
Rp521
(dp522
g14
I00
sg32
I00
sg82
I1
sg15
I00
sbsg386
g0
(g108
g2
Ntp523
Rp524
(dp525
g14
I00
sg32
I00
sg82
I10000000
sg15
I00
sbsg11
(lp526
g468
ag399
ag386
asg399
g0
(g122
g2
Ntp527
Rp528
(dp529
g14
I00
sg32
I00
sg82
I01
sg15
I00
sbsbsg11
(lp530
g496
ag461
ag433
ag343
ag414
ag445
ag391
ag434
ag399
asg445
g0
(g78
g2
Ntp531
Rp532
(dp533
g14
I00
sg32
I00
sg82
g496
sg15
I00
sbsbsbsS'_Process__services'
p534
(dp535
g305
g307
sg71
g74
ssS'CastorGeometryFromDBEP'
p536
g0
(g7
g2
Ntp537
Rp538
(dp539
g11
(lp540
g101
asg14
I00
sg15
I00
sg16
I40
sg17
g18
sg34
g536
sg101
g0
(g122
g2
Ntp541
Rp542
(dp543
g14
I00
sg32
I01
sg82
I00
sg15
I00
sbsg35
g536
sbsS'trackerGeometryDB'
p544
g0
(g7
g2
Ntp545
Rp546
(dp547
g11
(lp548
g89
aS'fromDDD'
p549
ag101
aS'alignmentsLabel'
p550
asg14
I00
sg89
g0
(g78
g2
Ntp551
Rp552
(dp553
g14
I00
sg32
I01
sg82
g93
sg15
I00
sbsg15
I00
sg550
g0
(g78
g2
Ntp554
Rp555
(dp556
g14
I00
sg32
I01
sg82
g93
sg15
I00
sbsg17
g18
sg16
I40
sg34
g544
sg549
g0
(g122
g2
Ntp557
Rp558
(dp559
g14
I00
sg32
I01
sg82
I00
sg15
I00
sbsg101
g0
(g122
g2
Ntp560
Rp561
(dp562
g14
I00
sg32
I01
sg82
I01
sg15
I00
sbsg35
S'TrackerDigiGeometryESModule'
p563
sbsS'pTreeProducers'
p564
g0
(cFWCore.ParameterSet.SequenceTypes
Path
p565
g2
Ntp566
Rp567
(dp568
g14
I00
sg43
g0
(g44
g2
Ntp569
Rp570
(dp571
g48
(lp572
g41
ag0
(cFWCore.ParameterSet.Modules
EDAnalyzer
p573
g2
Ntp574
Rp575
(dp576
g11
(lp577
sg14
I00
sg15
I00
sg16
I32
sg17
g55
sg34
S'infoHisto'
p578
sg35
S'SaveCountHistoInTreeFile'
p579
sbasbsg15
I00
sg34
g564
sbsS'eegeom'
p580
g0
(g216
g2
Ntp581
Rp582
(dp583
g11
(lp584
S'iovIsRunNotTime'
p585
aS'recordName'
p586
aS'firstValid'
p587
asg14
I00
sg15
I00
sg16
I6
sg586
g0
(g78
g2
Ntp588
Rp589
(dp590
g14
I00
sg32
I01
sg82
S'EcalMappingRcd'
p591
sg15
I00
sbsg17
S'/cvmfs/cms.cern.ch/slc6_amd64_gcc493/cms/cmssw/CMSSW_7_6_3/python/Geometry/EcalMapping/EcalMappingRecord_cfi.py'
p592
sg587
g0
(cFWCore.ParameterSet.Types
vuint32
p593
g20
(lp594
I1
atp595
Rp596
(dp597
g14
I00
sg32
I01
sg15
I00
sbsg34
g580
sg585
g0
(g122
g2
Ntp598
Rp599
(dp600
g14
I00
sg32
I01
sg82
I01
sg15
I00
sbsg35
S'EmptyESSource'
p601
sbsS'_Process__vpsets'
p602
(dp603
sS'EcalTrigTowerConstituentsMapBuilder'
p604
g0
(g7
g2
Ntp605
Rp606
(dp607
g11
(lp608
S'MapFile'
p609
asg14
I00
sg15
I00
sg609
g0
(g78
g2
Ntp610
Rp611
(dp612
g14
I00
sg32
I00
sg82
S'Geometry/EcalMapping/data/EndCap_TTMap.txt'
p613
sg15
I00
sbsg17
g18
sg16
I40
sg34
g604
sg35
g604
sbsS'siStripBackPlaneCorrectionDepESProducer'
p614
g0
(g7
g2
Ntp615
Rp616
(dp617
g11
(lp618
S'LatencyRecord'
p619
aS'BackPlaneCorrectionDeconvMode'
p620
aS'BackPlaneCorrectionPeakMode'
p621
asg14
I00
sg15
I00
sg16
I40
sg17
g18
sg619
g0
(g103
g2
Ntp622
Rp623
(dp624
g14
I00
sg32
I01
sg15
I00
sS'label'
p625
g0
(g78
g2
Ntp626
Rp627
(dp628
g14
I00
sg32
I00
sg82
g93
sg15
I00
sbsg190
g0
(g78
g2
Ntp629
Rp630
(dp631
g14
I00
sg32
I01
sg82
S'SiStripLatencyRcd'
p632
sg15
I00
sbsg11
(lp633
g190
ag625
asbsg621
g0
(g103
g2
Ntp634
Rp635
(dp636
g14
I00
sg32
I01
sg15
I00
sg625
g0
(g78
g2
Ntp637
Rp638
(dp639
g14
I00
sg32
I00
sg82
S'peak'
p640
sg15
I00
sbsg190
g0
(g78
g2
Ntp641
Rp642
(dp643
g14
I00
sg32
I01
sg82
S'SiStripBackPlaneCorrectionRcd'
p644
sg15
I00
sbsg11
(lp645
g190
ag625
asbsg34
g614
sg620
g0
(g103
g2
Ntp646
Rp647
(dp648
g14
I00
sg32
I01
sg15
I00
sg625
g0
(g78
g2
Ntp649
Rp650
(dp651
g14
I00
sg32
I00
sg82
S'deconvolution'
p652
sg15
I00
sbsg190
g0
(g78
g2
Ntp653
Rp654
(dp655
g14
I00
sg32
I01
sg82
g644
sg15
I00
sbsg11
(lp656
g190
ag625
asbsg35
S'SiStripBackPlaneCorrectionDepESProducer'
p657
sbsS'JetTree'
p658
g0
(g573
g2
Ntp659
Rp660
(dp661
g11
(lp662
S'simpleEventInfo'
p663
aS'slimmedMCJetsPt10'
p664
asg14
I00
sg15
I01
sg16
I53
sg17
S'/afs/cern.ch/work/i/ivanp/CFF_SOFT/CMSSW_7_6_3/src/CommonFSQFramework/Skim/config/DiJets/treemaker_DiJets_76.py'
p665
sg664
g0
(g103
g2
Ntp666
Rp667
(dp668
g14
I00
sg32
I01
sS'input_gen'
p669
g0
(cFWCore.ParameterSet.Types
InputTag
p670
g2
Ntp671
Rp672
(dp673
g14
I00
sg32
I01
sg15
I00
sS'_InputTag__moduleLabel'
p674
S'slimmedGenJets'
p675
sS'_InputTag__processName'
p676
g93
sS'_InputTag__productInstance'
p677
g93
sbsg15
I00
sS'branchPrefix'
p678
g0
(g78
g2
Ntp679
Rp680
(dp681
g14
I00
sg32
I00
sg82
S'slimmedJetsPt10_'
p682
sg15
I00
sbsS'miniView'
p683
g0
(g78
g2
Ntp684
Rp685
(dp686
g14
I00
sg32
I01
sg82
S'JetMCSimpleView'
p687
sg15
I00
sbsg11
(lp688
g669
aS'minPt'
p689
ag678
ag683
aS'input'
p690
aS'payload'
p691
asg690
g0
(g670
g2
Ntp692
Rp693
(dp694
g14
I00
sg32
I01
sg15
I00
sg674
S'slimmedJets'
p695
sg676
g93
sg677
g93
sbsg691
g0
(g78
g2
Ntp696
Rp697
(dp698
g14
I00
sg32
I01
sg82
S'AK4PFchs'
p699
sg15
I00
sbsg689
g0
(g170
g2
Ntp700
Rp701
(dp702
g14
I00
sg32
I01
sg82
I10
sg15
I00
sbsbsg663
g0
(g103
g2
Ntp703
Rp704
(dp705
g14
I00
sg32
I01
sg15
I00
sg678
g0
(g78
g2
Ntp706
Rp707
(dp708
g14
I00
sg32
I00
sg82
S'event_'
p709
sg15
I00
sbsS'vtx_col'
p710
g0
(g670
g2
Ntp711
Rp712
(dp713
g14
I00
sg32
I01
sg15
I00
sg674
S'offlineSlimmedPrimaryVertices'
p714
sg676
g93
sg677
g93
sbsg683
g0
(g78
g2
Ntp715
Rp716
(dp717
g14
I00
sg32
I01
sg82
S'EventSimpleView'
p718
sg15
I00
sbsg11
(lp719
g678
ag683
ag710
asbsg34
g658
sg35
S'CFFTreeProducer'
p720
sbsS'schedule'
p721
g0
(cFWCore.ParameterSet.SequenceTypes
Schedule
p722
g20
(lp723
g0
(g565
g2
Ntp724
Rp725
(dp726
g14
I00
sg43
g0
(g44
g2
Ntp727
Rp728
(dp729
g48
(lp730
g165
asbsg15
I00
sg34
S'pUtil'
p731
sbag0
(g565
g2
Ntp732
Rp733
(dp734
g14
I00
sg43
g0
(g44
g2
Ntp735
Rp736
(dp737
g48
(lp738
g660
asbsg15
I00
sg34
S'pJetTree'
p739
sbag567
atp740
Rp741
(dp742
g14
I00
sg32
I01
sg15
I00
sbsS'_Process__esprefers'
p743
(dp744
S'es_prefer_hcalHardcode'
p745
g0
(cFWCore.ParameterSet.Modules
ESPrefer
p746
g2
Ntp747
Rp748
(dp749
g11
(lp750
sg14
I00
sg15
I00
sS'_targetLabel'
p751
S'es_hardcode'
p752
sg16
I73
sg17
g18
sg34
g745
sg35
S'HcalHardcodeCalibrations'
p753
sbssS'_Process__isStrict'
p754
I00
sS'_Process__outputmodules'
p755
(dp756
sS'_Process__analyzers'
p757
(dp758
g658
g660
sg578
g575
ssS'idealForDigiTrackerGeometry'
p759
g0
(g7
g2
Ntp760
Rp761
(dp762
g11
(lp763
g89
ag549
ag101
ag550
asg14
I00
sg89
g0
(g78
g2
Ntp764
Rp765
(dp766
g14
I00
sg32
I01
sg82
S'idealForDigi'
p767
sg15
I01
sbsg15
I01
sg550
g0
(g78
g2
Ntp768
Rp769
(dp770
g14
I00
sg32
I01
sg82
S'fakeForIdeal'
p771
sg15
I01
sbsg17
S'/cvmfs/cms.cern.ch/slc6_amd64_gcc493/cms/cmssw/CMSSW_7_6_3/python/Geometry/TrackerGeometryBuilder/idealForDigiTrackerGeometryDB_cff.py'
p772
sg16
I8
sg34
g759
sg549
g0
(g122
g2
Ntp773
Rp774
(dp775
g14
I00
sg32
I01
sg82
I00
sg15
I00
sbsg101
g0
(g122
g2
Ntp776
Rp777
(dp778
g14
I00
sg32
I01
sg82
I00
sg15
I01
sbsg35
g563
sbsS'_Process__looper'
p779
NsS'TMFDataForProv'
p780
g0
(g103
g2
Ntp781
Rp782
(dp783
g14
I00
sg32
I01
sg15
I00
sS'notes'
p784
g0
(g78
g2
Ntp785
Rp786
(dp787
g14
I00
sg32
I01
sg82
S'test'
p788
sg15
I00
sbsg11
(lp789
g784
asg34
g780
sbsS'_Process__paths'
p790
g0
(g284
g285
(dp791
g731
g725
sg564
g567
sg739
g733
stp792
Rp793
(dp794
g290
(lp795
g564
ag731
ag739
asbsS'_Process__subProcess'
p796
NsS'options'
p797
g0
(g103
g2
Ntp798
Rp799
(dp800
g14
I00
sg32
I00
sg15
I01
sS'wantSummary'
p801
g0
(g122
g2
Ntp802
Rp803
(dp804
g14
I00
sg32
I00
sg82
I00
sg15
I01
sbsg11
(lp805
g801
asg34
g797
sbsS'DTGeometryESModule'
p806
g0
(g7
g2
Ntp807
Rp808
(dp809
g11
(lp810
g89
ag549
ag101
ag550
asg14
I00
sg89
g0
(g78
g2
Ntp811
Rp812
(dp813
g14
I00
sg32
I01
sg82
g93
sg15
I00
sbsg15
I00
sg550
g0
(g78
g2
Ntp814
Rp815
(dp816
g14
I00
sg32
I01
sg82
g93
sg15
I00
sbsg17
g18
sg16
I40
sg34
g806
sg549
g0
(g122
g2
Ntp817
Rp818
(dp819
g14
I00
sg32
I01
sg82
I00
sg15
I00
sbsg101
g0
(g122
g2
Ntp820
Rp821
(dp822
g14
I00
sg32
I01
sg82
I01
sg15
I00
sbsg35
g806
sbsS'VolumeBasedMagneticFieldESProducer'
p823
g0
(g7
g2
Ntp824
Rp825
(dp826
g11
(lp827
S'valueOverride'
p828
aS'debugBuilder'
p829
ag625
asg14
I00
sg828
g0
(g108
g2
Ntp830
Rp831
(dp832
g14
I00
sg32
I01
sg82
I-1
sg15
I00
sbsg16
I40
sg17
g18
sg625
g0
(g78
g2
Ntp833
Rp834
(dp835
g14
I00
sg32
I00
sg82
g93
sg15
I00
sbsg829
g0
(g122
g2
Ntp836
Rp837
(dp838
g14
I00
sg32
I00
sg82
I00
sg15
I00
sbsg34
g823
sg35
S'VolumeBasedMagneticFieldESProducerFromDB'
p839
sg15
I00
sbsS'CaloTopologyBuilder'
p840
g0
(g7
g2
Ntp841
Rp842
(dp843
g11
(lp844
sg14
I00
sg15
I00
sg16
I40
sg17
g18
sg34
g840
sg35
g840
sbsg731
g725
sS'SiStripRecHitMatcherESProducer'
p845
g0
(g7
g2
Ntp846
Rp847
(dp848
g11
(lp849
S'PreFilter'
p850
aS'ComponentName'
p851
aS'NSigmaInside'
p852
asg14
I00
sg15
I00
sg17
g18
sg851
g0
(g78
g2
Ntp853
Rp854
(dp855
g14
I00
sg32
I01
sg82
S'StandardMatcher'
p856
sg15
I00
sbsg850
g0
(g122
g2
Ntp857
Rp858
(dp859
g14
I00
sg32
I01
sg82
I00
sg15
I00
sbsg16
I40
sg852
g0
(g170
g2
Ntp860
Rp861
(dp862
g14
I00
sg32
I01
sg82
F3.0
sg15
I00
sbsg34
g845
sg35
g845
sbsS'_Process__psets'
p863
(dp864
S'maxEvents'
p865
g0
(g103
g2
Ntp866
Rp867
(dp868
g14
I00
sg32
I00
sg15
I00
sg11
(lp869
g690
asg34
g865
sg690
g0
(g108
g2
Ntp870
Rp871
(dp872
g14
I00
sg32
I00
sg82
I1000
sg15
I00
sbsbsg780
g782
sg126
g128
sg797
g799
sS'CondDBSetup'
p873
g0
(g103
g2
Ntp874
Rp875
(dp876
g14
I00
sg32
I01
sg15
I00
sg221
g0
(g103
g2
Ntp877
Rp878
(dp879
g14
I00
sg32
I01
sg241
g0
(g108
g2
Ntp880
Rp881
(dp882
g14
I00
sg32
I00
sg82
I10
sg15
I00
sbsg237
g0
(g78
g2
Ntp883
Rp884
(dp885
g14
I00
sg32
I00
sg82
g93
sg15
I00
sbsg15
I00
sg245
g0
(g108
g2
Ntp886
Rp887
(dp888
g14
I00
sg32
I00
sg82
I10
sg15
I00
sbsg249
g0
(g108
g2
Ntp889
Rp890
(dp891
g14
I00
sg32
I00
sg82
I0
sg15
I00
sbsg253
g0
(g122
g2
Ntp892
Rp893
(dp894
g14
I00
sg32
I00
sg82
I00
sg15
I00
sbsg257
g0
(g122
g2
Ntp895
Rp896
(dp897
g14
I00
sg32
I00
sg82
I01
sg15
I00
sbsg261
g0
(g122
g2
Ntp898
Rp899
(dp900
g14
I00
sg32
I00
sg82
I00
sg15
I00
sbsg11
(lp901
g237
ag261
ag245
ag249
ag253
ag257
ag266
ag267
ag268
ag241
asg267
g0
(g108
g2
Ntp902
Rp903
(dp904
g14
I00
sg32
I00
sg82
I60
sg15
I00
sbsg268
g0
(g108
g2
Ntp905
Rp906
(dp907
g14
I00
sg32
I00
sg82
I0
sg15
I00
sbsg266
g0
(g108
g2
Ntp908
Rp909
(dp910
g14
I00
sg32
I00
sg82
I60
sg15
I00
sbsbsg11
(lp911
g221
asg34
g873
sbssS'_Process__essources'
p912
(dp913
g752
g0
(g216
g2
Ntp914
Rp915
(dp916
g11
(lp917
g126
aS'HERecalibration'
p918
ag222
aS'GainWidthsForTrigPrims'
p919
aS'HEreCalibCutoff'
p920
aS'HFRecalibration'
p921
aS'iLumi'
p922
ag102
asg14
I00
sg126
g128
sg15
I01
sg16
I19
sg918
g0
(g122
g2
Ntp923
Rp924
(dp925
g14
I00
sg32
I01
sg82
I00
sg15
I00
sbsg102
g0
(g103
g2
Ntp926
Rp927
(dp928
g14
I00
sg32
I01
sg15
I00
sg107
g0
(g108
g2
Ntp929
Rp930
(dp931
g14
I00
sg32
I01
sg82
I3
sg15
I00
sbsg112
g0
(g108
g2
Ntp932
Rp933
(dp934
g14
I00
sg32
I01
sg82
I2
sg15
I00
sbsg11
(lp935
g107
ag112
ag117
asg117
g0
(g78
g2
Ntp936
Rp937
(dp938
g14
I00
sg32
I01
sg82
g121
sg15
I00
sbsbsg222
g0
(g19
g20
(lp939
S'GainWidths'
p940
atp941
Rp942
(dp943
g14
I00
sg32
I00
sg15
I00
sg33
I1
sbsg919
g0
(g122
g2
Ntp944
Rp945
(dp946
g14
I00
sg32
I01
sg82
I00
sg15
I00
sbsg920
g0
(g170
g2
Ntp947
Rp948
(dp949
g14
I00
sg32
I01
sg82
F20.0
sg15
I00
sbsg921
g0
(g122
g2
Ntp950
Rp951
(dp952
g14
I00
sg32
I01
sg82
I00
sg15
I00
sbsg17
S'/cvmfs/cms.cern.ch/slc6_amd64_gcc493/cms/cmssw/CMSSW_7_6_3/python/CalibCalorimetry/HcalPlugins/Hcal_Conditions_forGlobalTag_cff.py'
p953
sg34
g752
sg922
g0
(g170
g2
Ntp954
Rp955
(dp956
g14
I00
sg32
I01
sg82
F-1.0
sg15
I00
sbsg35
g753
sbsg580
g582
sg215
g218
ssg70
g61
sg38
g41
sg865
g867
sS'CSCGeometryESModule'
p957
g0
(g7
g2
Ntp958
Rp959
(dp960
g11
(lp961
g89
aS'useDDD'
p962
aS'debugV'
p963
aS'useGangedStripsInME1a'
p964
ag550
aS'useOnlyWiresInME1a'
p965
aS'useRealWireGeometry'
p966
aS'useCentreTIOffsets'
p967
ag101
asg14
I00
sg89
g0
(g78
g2
Ntp968
Rp969
(dp970
g14
I00
sg32
I01
sg82
g93
sg15
I00
sbsg15
I00
sg963
g0
(g122
g2
Ntp971
Rp972
(dp973
g14
I00
sg32
I00
sg82
I00
sg15
I00
sbsg17
g18
sg964
g0
(g122
g2
Ntp974
Rp975
(dp976
g14
I00
sg32
I01
sg82
I01
sg15
I00
sbsg550
g0
(g78
g2
Ntp977
Rp978
(dp979
g14
I00
sg32
I01
sg82
g93
sg15
I00
sbsg965
g0
(g122
g2
Ntp980
Rp981
(dp982
g14
I00
sg32
I01
sg82
I00
sg15
I00
sbsg962
g0
(g122
g2
Ntp983
Rp984
(dp985
g14
I00
sg32
I01
sg82
I00
sg15
I00
sbsg16
I40
sg967
g0
(g122
g2
Ntp986
Rp987
(dp988
g14
I00
sg32
I01
sg82
I00
sg15
I00
sbsg34
g957
sg966
g0
(g122
g2
Ntp989
Rp990
(dp991
g14
I00
sg32
I01
sg82
I01
sg15
I00
sbsg101
g0
(g122
g2
Ntp992
Rp993
(dp994
g14
I00
sg32
I01
sg82
I01
sg15
I00
sbsg35
g957
sbsS'EcalBarrelGeometryFromDBEP'
p995
g0
(g7
g2
Ntp996
Rp997
(dp998
g11
(lp999
g101
asg14
I00
sg15
I01
sg16
I40
sg17
g18
sg34
g995
sg101
g0
(g122
g2
Ntp1000
Rp1001
(dp1002
g14
I00
sg32
I01
sg82
I01
sg15
I01
sbsg35
g995
sbsS'trackerNumberingGeometryDB'
p1003
g0
(g7
g2
Ntp1004
Rp1005
(dp1006
g11
(lp1007
g89
ag549
asg14
I00
sg89
g0
(g78
g2
Ntp1008
Rp1009
(dp1010
g14
I00
sg32
I01
sg82
g93
sg15
I00
sbsg15
I00
sg16
I40
sg17
g18
sg34
g1003
sg549
g0
(g122
g2
Ntp1011
Rp1012
(dp1013
g14
I00
sg32
I01
sg82
I00
sg15
I00
sbsg35
S'TrackerGeometricDetESModule'
p1014
sbsS'_Process__name'
p1015
S'Treemaker'
p1016
sg739
g733
sg752
g915
sS'_cloneToObjectDict'
p1017
(dp1018
I29832336
g616
sI29874448
g725
sI29721552
g294
sI29737936
g0
(g7
g2
Ntp1019
Rp1020
(dp1021
g11
(lp1022
S'Exclude'
p1023
ag89
ag102
asg14
I00
sg89
g0
(g78
g2
Ntp1024
Rp1025
(dp1026
g14
I00
sg32
I01
sg82
g93
sg15
I00
sbsg15
I00
sg16
I40
sg17
g18
sg102
g0
(g103
g2
Ntp1027
Rp1028
(dp1029
g14
I00
sg32
I01
sg15
I00
sg107
g0
(g108
g2
Ntp1030
Rp1031
(dp1032
g14
I00
sg32
I01
sg82
I3
sg15
I00
sbsg112
g0
(g108
g2
Ntp1033
Rp1034
(dp1035
g14
I00
sg32
I01
sg82
I2
sg15
I00
sbsg11
(lp1036
g107
ag112
ag117
asg117
g0
(g78
g2
Ntp1037
Rp1038
(dp1039
g14
I00
sg32
I01
sg82
S'HcalTopologyMode::LHC'
p1040
sg15
I00
sbsbsg34
S'hcalTopologyIdeal'
p1041
sg1023
g0
(g78
g2
Ntp1042
Rp1043
(dp1044
g14
I00
sg32
I00
sg82
g93
sg15
I00
sbsg35
S'HcalTopologyIdealEP'
p1045
sbsI29872272
g825
sI29779024
g0
(g7
g2
Ntp1046
Rp1047
(dp1048
g11
(lp1049
g89
asg14
I00
sg89
g0
(g78
g2
Ntp1050
Rp1051
(dp1052
g14
I00
sg32
I01
sg82
g771
sg15
I01
sbsg15
I01
sg16
I5
sg17
S'/cvmfs/cms.cern.ch/slc6_amd64_gcc493/cms/cmssw/CMSSW_7_6_3/python/Alignment/CommonAlignmentProducer/fakeForIdealAlignmentProducer_cfi.py'
p1053
sg34
S'fakeForIdealAlignment'
p1054
sg35
S'FakeAlignmentProducer'
p1055
sbsI29803664
g128
sI29873936
g567
sI29704592
g799
sI29738384
g0
(g7
g2
Ntp1056
Rp1057
(dp1058
g11
(lp1059
sg14
I00
sg15
I00
sg16
I40
sg17
g18
sg34
S'CaloTowerTopologyEP'
p1060
sg35
g1060
sbsI29832656
g0
(g7
g2
Ntp1061
Rp1062
(dp1063
g11
(lp1064
S'ComponentType'
p1065
ag851
aS'parameters'
p1066
asg14
I00
sg15
I00
sg1066
g0
(g103
g2
Ntp1067
Rp1068
(dp1069
g14
I00
sg32
I01
sg15
I00
sg11
(lp1070
sbsg16
I40
sg851
g0
(g78
g2
Ntp1071
Rp1072
(dp1073
g14
I00
sg32
I01
sg82
S'stripCPE'
p1074
sg15
I00
sbsg1065
g0
(g78
g2
Ntp1075
Rp1076
(dp1077
g14
I00
sg32
I01
sg82
S'SimpleStripCPE'
p1078
sg15
I00
sbsg17
g18
sg34
S'stripCPEESProducer'
p1079
sg35
S'StripCPEESProducer'
p1080
sbsI29832784
g0
(g7
g2
Ntp1081
Rp1082
(dp1083
g11
(lp1084
g1065
ag851
ag1066
asg14
I00
sg15
I01
sg1066
g0
(g103
g2
Ntp1085
Rp1086
(dp1087
g14
I00
sg32
I01
sS'maxChgOneMIP'
p1088
g0
(g170
g2
Ntp1089
Rp1090
(dp1091
g14
I00
sg32
I01
sg82
F6000.0
sg15
I00
sbsS'mLC_P2'
p1092
g0
(g170
g2
Ntp1093
Rp1094
(dp1095
g14
I00
sg32
I01
sg82
F0.3
sg15
I00
sbsS'mLC_P1'
p1096
g0
(g170
g2
Ntp1097
Rp1098
(dp1099
g14
I00
sg32
I01
sg82
F0.618
sg15
I00
sbsS'mLC_P0'
p1100
g0
(g170
g2
Ntp1101
Rp1102
(dp1103
g14
I00
sg32
I01
sg82
F-0.326
sg15
I00
sbsS'useLegacyError'
p1104
g0
(g122
g2
Ntp1105
Rp1106
(dp1107
g14
I00
sg32
I01
sg82
I00
sg15
I00
sbsS'mTIB_P1'
p1108
g0
(g170
g2
Ntp1109
Rp1110
(dp1111
g14
I00
sg32
I01
sg82
F0.202
sg15
I00
sbsS'mTEC_P1'
p1112
g0
(g170
g2
Ntp1113
Rp1114
(dp1115
g14
I00
sg32
I01
sg82
F0.471
sg15
I00
sbsS'mTEC_P0'
p1116
g0
(g170
g2
Ntp1117
Rp1118
(dp1119
g14
I00
sg32
I01
sg82
F-1.885
sg15
I00
sbsS'mTOB_P0'
p1120
g0
(g170
g2
Ntp1121
Rp1122
(dp1123
g14
I00
sg32
I01
sg82
F-1.026
sg15
I00
sbsS'mTOB_P1'
p1124
g0
(g170
g2
Ntp1125
Rp1126
(dp1127
g14
I00
sg32
I01
sg82
F0.253
sg15
I00
sbsS'mTIB_P0'
p1128
g0
(g170
g2
Ntp1129
Rp1130
(dp1131
g14
I00
sg32
I01
sg82
F-0.742
sg15
I00
sbsg11
(lp1132
g1088
ag1092
ag1096
ag1100
ag1104
ag1112
ag1116
ag1120
ag1124
ag1128
ag1108
aS'mTID_P0'
p1133
aS'mTID_P1'
p1134
asg1133
g0
(g170
g2
Ntp1135
Rp1136
(dp1137
g14
I00
sg32
I01
sg82
F-1.427
sg15
I00
sbsg1134
g0
(g170
g2
Ntp1138
Rp1139
(dp1140
g14
I00
sg32
I01
sg82
F0.433
sg15
I00
sbsg15
I00
sbsg16
I4
sg851
g0
(g78
g2
Ntp1141
Rp1142
(dp1143
g14
I00
sg32
I01
sg82
S'StripCPEfromTrackAngle'
p1144
sg15
I00
sbsg1065
g0
(g78
g2
Ntp1145
Rp1146
(dp1147
g14
I00
sg32
I01
sg82
g1144
sg15
I00
sbsg17
S'/cvmfs/cms.cern.ch/slc6_amd64_gcc493/cms/cmssw/CMSSW_7_6_3/python/RecoLocalTracker/SiStripRecHitConverter/StripCPEfromTrackAngle_cfi.py'
p1148
sg34
S'StripCPEfromTrackAngleESProducer'
p1149
sg35
g1080
sbsI29834128
g847
sI29720976
g546
sI29804240
g915
sI29722384
g9
sI29874128
g165
sI29739024
g0
(g7
g2
Ntp1150
Rp1151
(dp1152
g11
(lp1153
g101
asg14
I00
sg15
I00
sg16
I40
sg17
g18
sg34
S'ZdcGeometryFromDBEP'
p1154
sg101
g0
(g122
g2
Ntp1155
Rp1156
(dp1157
g14
I00
sg32
I01
sg82
I00
sg15
I00
sbsg35
g1154
sbsI29781968
g0
(g7
g2
Ntp1158
Rp1159
(dp1160
g11
(lp1161
sg14
I00
sg15
I00
sg16
I40
sg17
g18
sg34
S'EcalLaserCorrectionService'
p1162
sg35
g1162
sbsI29873296
g575
sI29722768
g299
sI29874384
g0
(g565
g2
Ntp1163
Rp1164
(dp1165
g14
I00
sg43
g0
(g44
g2
Ntp1166
Rp1167
(dp1168
g48
(lp1169
g165
asbsg15
I00
sg34
NsbsI29722896
g0
(g7
g2
Ntp1170
Rp1171
(dp1172
g11
(lp1173
g101
asg14
I00
sg15
I01
sg16
I40
sg17
g18
sg34
S'EcalPreshowerGeometryFromDBEP'
p1174
sg101
g0
(g122
g2
Ntp1175
Rp1176
(dp1177
g14
I00
sg32
I01
sg82
I01
sg15
I01
sbsg35
g1174
sbsI29739344
g538
sI29721936
g842
sI29874192
g52
sI29874768
g782
sI29739664
g606
sI29874896
g660
sI29874256
g41
sI29707152
g0
(g7
g2
Ntp1178
Rp1179
(dp1180
g11
(lp1181
g962
aS'compatibiltyWith11'
p1182
asg14
I00
sg15
I00
sg16
I40
sg17
g18
sg962
g0
(g122
g2
Ntp1183
Rp1184
(dp1185
g14
I00
sg32
I00
sg82
I00
sg15
I00
sbsg1182
g0
(g122
g2
Ntp1186
Rp1187
(dp1188
g14
I00
sg32
I00
sg82
I01
sg15
I00
sbsg34
S'RPCGeometryESModule'
p1189
sg35
g1189
sbsI29723600
g0
(g7
g2
Ntp1190
Rp1191
(dp1192
g11
(lp1193
g101
ag102
asg14
I00
sg15
I01
sg16
I40
sg17
g18
sg102
g0
(g103
g2
Ntp1194
Rp1195
(dp1196
g14
I00
sg32
I01
sg15
I00
sg107
g0
(g108
g2
Ntp1197
Rp1198
(dp1199
g14
I00
sg32
I01
sg82
I3
sg15
I00
sbsg112
g0
(g108
g2
Ntp1200
Rp1201
(dp1202
g14
I00
sg32
I01
sg82
I2
sg15
I00
sbsg11
(lp1203
g107
ag112
ag117
asg117
g0
(g78
g2
Ntp1204
Rp1205
(dp1206
g14
I00
sg32
I01
sg82
g121
sg15
I00
sbsbsg34
S'HcalGeometryFromDBEP'
p1207
sg101
g0
(g122
g2
Ntp1208
Rp1209
(dp1210
g14
I00
sg32
I01
sg82
I01
sg15
I01
sbsg35
g1207
sbsI29803472
g0
(g7
g2
Ntp1211
Rp1212
(dp1213
g11
(lp1214
S'file'
p1215
aS'dump'
p1216
asg14
I00
sg15
I00
sg1216
g0
(g19
g20
(lp1217
g93
atp1218
Rp1219
(dp1220
g14
I00
sg32
I00
sg15
I00
sg33
I1
sbsg16
I40
sg17
g18
sg1215
g0
(g78
g2
Ntp1221
Rp1222
(dp1223
g14
I00
sg32
I00
sg82
g93
sg15
I00
sbsg34
S'hcal_db_producer'
p1224
sg35
S'HcalDbProducer'
p1225
sbsI29834256
g0
(g7
g2
Ntp1226
Rp1227
(dp1228
g11
(lp1229
sg14
I00
sg15
I00
sg16
I40
sg17
g18
sg34
S'sistripconn'
p1230
sg35
S'SiStripConnectivity'
p1231
sbsI29740112
g0
(g7
g2
Ntp1232
Rp1233
(dp1234
g11
(lp1235
sg14
I00
sg15
I00
sg16
I40
sg17
g18
sg34
S'EcalElectronicsMappingBuilder'
p1236
sg35
g1236
sbsI29740368
g582
sI29724112
g0
(g7
g2
Ntp1237
Rp1238
(dp1239
g11
(lp1240
sg14
I00
sg15
I00
sg16
I40
sg17
g18
sg34
S'HcalAlignmentEP'
p1241
sg35
g1241
sbsI29707792
g808
sI29872784
g0
(g7
g2
Ntp1242
Rp1243
(dp1244
g11
(lp1245
S'version'
p1246
ag828
ag625
asg14
I00
sg15
I01
sg16
I40
sg17
g18
sg625
g0
(g78
g2
Ntp1247
Rp1248
(dp1249
g14
I00
sg32
I00
sg82
S'ParabolicMf'
p1250
sg15
I01
sbsg1246
g0
(g78
g2
Ntp1251
Rp1252
(dp1253
g14
I00
sg32
I01
sg82
S'Parabolic'
p1254
sg15
I00
sbsg828
g0
(g108
g2
Ntp1255
Rp1256
(dp1257
g14
I00
sg32
I01
sg82
I-1
sg15
I00
sbsg34
S'ParabolicParametrizedMagneticFieldProducer'
p1258
sg35
S'AutoParametrizedMagneticFieldProducer'
p1259
sbsI29834960
g0
(g7
g2
Ntp1260
Rp1261
(dp1262
g11
(lp1263
sg14
I00
sg15
I00
sg16
I40
sg17
g18
sg34
S'CastorDbProducer'
p1264
sg35
g1264
sbsI29723024
g997
sI29902288
g733
sI29740880
g86
sI29706128
g959
sI29708176
g1005
sI29724624
g98
sI29781712
g875
sI29779280
g0
(g7
g2
Ntp1265
Rp1266
(dp1267
g11
(lp1268
g89
ag962
ag963
ag964
ag550
ag965
ag966
ag967
ag101
asg14
I00
sg89
g0
(g78
g2
Ntp1269
Rp1270
(dp1271
g14
I00
sg32
I01
sg82
g767
sg15
I01
sbsg15
I01
sg963
g0
(g122
g2
Ntp1272
Rp1273
(dp1274
g14
I00
sg32
I00
sg82
I00
sg15
I00
sbsg17
S'/cvmfs/cms.cern.ch/slc6_amd64_gcc493/cms/cmssw/CMSSW_7_6_3/python/Geometry/CSCGeometryBuilder/idealForDigiCscGeometryDB_cff.py'
p1275
sg964
g0
(g122
g2
Ntp1276
Rp1277
(dp1278
g14
I00
sg32
I01
sg82
I01
sg15
I00
sbsg550
g0
(g78
g2
Ntp1279
Rp1280
(dp1281
g14
I00
sg32
I01
sg82
g771
sg15
I01
sbsg965
g0
(g122
g2
Ntp1282
Rp1283
(dp1284
g14
I00
sg32
I01
sg82
I00
sg15
I00
sbsg962
g0
(g122
g2
Ntp1285
Rp1286
(dp1287
g14
I00
sg32
I01
sg82
I00
sg15
I00
sbsg16
I8
sg967
g0
(g122
g2
Ntp1288
Rp1289
(dp1290
g14
I00
sg32
I01
sg82
I00
sg15
I00
sbsg34
S'idealForDigiCSCGeometry'
p1291
sg966
g0
(g122
g2
Ntp1292
Rp1293
(dp1294
g14
I00
sg32
I01
sg82
I01
sg15
I00
sbsg101
g0
(g122
g2
Ntp1295
Rp1296
(dp1297
g14
I00
sg32
I01
sg82
I00
sg15
I01
sbsg35
g957
sbsI29778128
g0
(g7
g2
Ntp1298
Rp1299
(dp1300
g11
(lp1301
g89
asg14
I00
sg89
g0
(g78
g2
Ntp1302
Rp1303
(dp1304
g14
I00
sg32
I01
sg82
g93
sg15
I00
sbsg15
I00
sg16
I40
sg17
g18
sg34
S'hcalDDDRecConstants'
p1305
sg35
S'HcalDDDRecConstantsESModule'
p1306
sbsI29780112
g0
(g7
g2
Ntp1307
Rp1308
(dp1309
g11
(lp1310
g89
ag549
ag101
ag550
asg14
I00
sg89
g0
(g78
g2
Ntp1311
Rp1312
(dp1313
g14
I00
sg32
I01
sg82
g767
sg15
I01
sbsg15
I01
sg550
g0
(g78
g2
Ntp1314
Rp1315
(dp1316
g14
I00
sg32
I01
sg82
g771
sg15
I01
sbsg17
S'/cvmfs/cms.cern.ch/slc6_amd64_gcc493/cms/cmssw/CMSSW_7_6_3/python/Geometry/DTGeometryBuilder/idealForDigiDtGeometryDB_cff.py'
p1317
sg16
I8
sg34
S'idealForDigiDTGeometry'
p1318
sg549
g0
(g122
g2
Ntp1319
Rp1320
(dp1321
g14
I00
sg32
I01
sg82
I00
sg15
I00
sbsg101
g0
(g122
g2
Ntp1322
Rp1323
(dp1324
g14
I00
sg32
I01
sg82
I00
sg15
I01
sbsg35
g806
sbsI29704464
g867
sI29778320
g761
sI29831632
g0
(g7
g2
Ntp1325
Rp1326
(dp1327
g11
(lp1328
g619
aS'LorentzAngleDeconvMode'
p1329
aS'LorentzAnglePeakMode'
p1330
asg14
I00
sg15
I00
sg16
I40
sg17
g18
sg619
g0
(g103
g2
Ntp1331
Rp1332
(dp1333
g14
I00
sg32
I01
sg15
I00
sg625
g0
(g78
g2
Ntp1334
Rp1335
(dp1336
g14
I00
sg32
I00
sg82
g93
sg15
I00
sbsg190
g0
(g78
g2
Ntp1337
Rp1338
(dp1339
g14
I00
sg32
I01
sg82
g632
sg15
I00
sbsg11
(lp1340
g190
ag625
asbsg34
S'siStripLorentzAngleDepESProducer'
p1341
sg1330
g0
(g103
g2
Ntp1342
Rp1343
(dp1344
g14
I00
sg32
I01
sg15
I00
sg625
g0
(g78
g2
Ntp1345
Rp1346
(dp1347
g14
I00
sg32
I00
sg82
g640
sg15
I00
sbsg190
g0
(g78
g2
Ntp1348
Rp1349
(dp1350
g14
I00
sg32
I01
sg82
S'SiStripLorentzAngleRcd'
p1351
sg15
I00
sbsg11
(lp1352
g190
ag625
asbsg35
S'SiStripLorentzAngleDepESProducer'
p1353
sg1329
g0
(g103
g2
Ntp1354
Rp1355
(dp1356
g14
I00
sg32
I01
sg15
I00
sg625
g0
(g78
g2
Ntp1357
Rp1358
(dp1359
g14
I00
sg32
I00
sg82
g652
sg15
I00
sbsg190
g0
(g78
g2
Ntp1360
Rp1361
(dp1362
g14
I00
sg32
I01
sg82
g1351
sg15
I00
sbsg11
(lp1363
g190
ag625
asbsbsI29806096
g0
(g7
g2
Ntp1364
Rp1365
(dp1366
g11
(lp1367
S'printDebug'
p1368
ag89
aS'APVGain'
p1369
aS'AutomaticNormalization'
p1370
asg14
I00
sg89
g0
(g78
g2
Ntp1371
Rp1372
(dp1373
g14
I00
sg32
I01
sg82
g93
sg15
I00
sbsg15
I00
sg1370
g0
(g122
g2
Ntp1374
Rp1375
(dp1376
g14
I00
sg32
I01
sg82
I00
sg15
I00
sbsg16
I40
sg1368
g0
(g122
g2
Ntp1377
Rp1378
(dp1379
g14
I00
sg32
I00
sg82
I00
sg15
I00
sbsg17
g18
sg1369
g0
(g185
g20
(lp1380
g0
(g103
g2
Ntp1381
Rp1382
(dp1383
g14
I00
sg32
I01
sg15
I00
sS'Label'
p1384
g0
(g78
g2
Ntp1385
Rp1386
(dp1387
g14
I00
sg32
I00
sg82
g93
sg15
I00
sbsS'Record'
p1388
g0
(g78
g2
Ntp1389
Rp1390
(dp1391
g14
I00
sg32
I01
sg82
S'SiStripApvGainRcd'
p1392
sg15
I00
sbsS'NormalizationFactor'
p1393
g0
(g170
g2
Ntp1394
Rp1395
(dp1396
g14
I00
sg32
I00
sg82
F1.0
sg15
I00
sbsg11
(lp1397
g1388
ag1393
ag1384
asbag0
(g103
g2
Ntp1398
Rp1399
(dp1400
g14
I00
sg32
I01
sg15
I00
sg1384
g0
(g78
g2
Ntp1401
Rp1402
(dp1403
g14
I00
sg32
I00
sg82
g93
sg15
I00
sbsg1388
g0
(g78
g2
Ntp1404
Rp1405
(dp1406
g14
I00
sg32
I01
sg82
S'SiStripApvGain2Rcd'
p1407
sg15
I00
sbsg1393
g0
(g170
g2
Ntp1408
Rp1409
(dp1410
g14
I00
sg32
I00
sg82
F1.0
sg15
I00
sbsg11
(lp1411
g1388
ag1393
ag1384
asbatp1412
Rp1413
(dp1414
g14
I00
sg32
I01
sg15
I00
sg33
I1
sbsg34
S'siStripGainESProducer'
p1415
sg35
S'SiStripGainESProducer'
p1416
sbsI29804304
g748
sI29721168
g0
(g7
g2
Ntp1417
Rp1418
(dp1419
g11
(lp1420
sg14
I00
sg15
I00
sg16
I40
sg17
g18
sg34
S'GlobalTrackingGeometryESProducer'
p1421
sg35
g1421
sbsI29721232
g0
(g7
g2
Ntp1422
Rp1423
(dp1424
g11
(lp1425
sg14
I00
sg15
I00
sg16
I40
sg17
g18
sg34
S'TrackerRecoGeometryESProducer'
p1426
sg35
g1426
sbsI29781840
g218
sI29848400
g0
(g7
g2
Ntp1427
Rp1428
(dp1429
g11
(lp1430
g89
aS'PrintDebugOutput'
p1431
aS'ThresholdForReducedGranularity'
p1432
aS'UseEmptyRunInfo'
p1433
aS'ReduceGranularity'
p1434
ag184
asg14
I00
sg89
g0
(g78
g2
Ntp1435
Rp1436
(dp1437
g14
I00
sg32
I01
sg82
g93
sg15
I00
sbsg15
I01
sg16
I40
sg17
g18
sg1432
g0
(g170
g2
Ntp1438
Rp1439
(dp1440
g14
I00
sg32
I01
sg82
F0.3
sg15
I00
sbsg34
S'siStripQualityESProducer'
p1441
sg1433
g0
(g122
g2
Ntp1442
Rp1443
(dp1444
g14
I00
sg32
I01
sg82
I00
sg15
I00
sbsg1434
g0
(g122
g2
Ntp1445
Rp1446
(dp1447
g14
I00
sg32
I01
sg82
I00
sg15
I00
sbsg184
g0
(g185
g20
(lp1448
g0
(g103
g2
Ntp1449
Rp1450
(dp1451
g14
I00
sg32
I01
sg15
I00
sg190
g0
(g78
g2
Ntp1452
Rp1453
(dp1454
g14
I00
sg32
I01
sg82
S'SiStripDetVOffRcd'
p1455
sg15
I00
sbsg195
g0
(g78
g2
Ntp1456
Rp1457
(dp1458
g14
I00
sg32
I01
sg82
g93
sg15
I00
sbsg11
(lp1459
g190
ag195
asbag0
(g103
g2
Ntp1460
Rp1461
(dp1462
g14
I00
sg32
I01
sg15
I00
sg190
g0
(g78
g2
Ntp1463
Rp1464
(dp1465
g14
I00
sg32
I01
sg82
S'SiStripDetCablingRcd'
p1466
sg15
I00
sbsg195
g0
(g78
g2
Ntp1467
Rp1468
(dp1469
g14
I00
sg32
I01
sg82
g93
sg15
I00
sbsg11
(lp1470
g190
ag195
asbag0
(g103
g2
Ntp1471
Rp1472
(dp1473
g14
I00
sg32
I01
sg15
I00
sg190
g0
(g78
g2
Ntp1474
Rp1475
(dp1476
g14
I00
sg32
I01
sg82
S'RunInfoRcd'
p1477
sg15
I00
sbsg195
g0
(g78
g2
Ntp1478
Rp1479
(dp1480
g14
I00
sg32
I01
sg82
g93
sg15
I00
sbsg11
(lp1481
g190
ag195
asbag0
(g103
g2
Ntp1482
Rp1483
(dp1484
g14
I00
sg32
I01
sg15
I00
sg190
g0
(g78
g2
Ntp1485
Rp1486
(dp1487
g14
I00
sg32
I01
sg82
S'SiStripBadChannelRcd'
p1488
sg15
I00
sbsg195
g0
(g78
g2
Ntp1489
Rp1490
(dp1491
g14
I00
sg32
I01
sg82
g93
sg15
I00
sbsg11
(lp1492
g190
ag195
asbag0
(g103
g2
Ntp1493
Rp1494
(dp1495
g14
I00
sg32
I01
sg15
I00
sg190
g0
(g78
g2
Ntp1496
Rp1497
(dp1498
g14
I00
sg32
I01
sg82
S'SiStripBadFiberRcd'
p1499
sg15
I00
sbsg195
g0
(g78
g2
Ntp1500
Rp1501
(dp1502
g14
I00
sg32
I01
sg82
g93
sg15
I00
sbsg11
(lp1503
g190
ag195
asbag0
(g103
g2
Ntp1504
Rp1505
(dp1506
g14
I00
sg32
I01
sg15
I00
sg190
g0
(g78
g2
Ntp1507
Rp1508
(dp1509
g14
I00
sg32
I01
sg82
S'SiStripBadModuleRcd'
p1510
sg15
I00
sbsg195
g0
(g78
g2
Ntp1511
Rp1512
(dp1513
g14
I00
sg32
I01
sg82
g93
sg15
I00
sbsg11
(lp1514
g190
ag195
asbag0
(g103
g2
Ntp1515
Rp1516
(dp1517
g14
I00
sg32
I01
sg15
I00
sg190
g0
(g78
g2
Ntp1518
Rp1519
(dp1520
g14
I00
sg32
I01
sg82
S'SiStripBadStripRcd'
p1521
sg15
I00
sbsg195
g0
(g78
g2
Ntp1522
Rp1523
(dp1524
g14
I00
sg32
I01
sg82
g93
sg15
I00
sbsg11
(lp1525
g190
ag195
asbatp1526
Rp1527
(dp1528
g14
I00
sg32
I01
sg15
I00
sg33
I1
sbsg35
S'SiStripQualityESProducer'
p1529
sg1431
g0
(g122
g2
Ntp1530
Rp1531
(dp1532
g14
I00
sg32
I01
sg82
I00
sg15
I00
sbsbsI29721360
g0
(g7
g2
Ntp1533
Rp1534
(dp1535
g11
(lp1536
g89
asg14
I00
sg89
g0
(g78
g2
Ntp1537
Rp1538
(dp1539
g14
I00
sg32
I01
sg82
g93
sg15
I00
sbsg15
I00
sg16
I40
sg17
g18
sg34
S'trackerTopology'
p1540
sg35
S'TrackerTopologyEP'
p1541
sbsI29835088
g181
ssg1415
g1365
sg1189
g1179
sg1230
g1227
sg1154
g1151
sg1426
g1423
sg163
g165
sg1341
g1326
sg1060
g1057
sg1258
g1243
sg578
g575
sg1079
g1062
sg1540
g1534
sg1207
g1191
sg873
g875
sg745
g748
sg1236
g1233
sg1149
g1082
sS'_Process__aliases'
p1542
(dp1543
sg1421
g1418
sg1162
g1159
sg1241
g1238
sg1174
g1171
sg1305
g1299
sg1264
g1261
sg1291
g1266
sg1224
g1212
sg1041
g1020
sS'_Process__schedule'
p1544
g741
sg1441
g1428
sg1318
g1308
sS'_Process__modifiers'
p1545
(tsS'_Process__filters'
p1546
(dp1547
sS'_Process__esproducers'
p1548
(dp1549
g6
g9
sg1162
g1159
sg1426
g1423
sg823
g825
sg1149
g1082
sg536
g538
sg840
g842
sg1421
g1418
sg544
g546
sg1341
g1326
sg1041
g1020
sg1241
g1238
sg1174
g1171
sg1264
g1261
sg1305
g1299
sg957
g959
sg995
g997
sg1003
g1005
sg1236
g1233
sg604
g606
sg1291
g1266
sg96
g98
sg614
g616
sg1224
g1212
sg1415
g1365
sg845
g847
sg1189
g1179
sg1318
g1308
sg1154
g1151
sg806
g808
sg1441
g1428
sg1230
g1227
sg1258
g1243
sg759
g761
sg1060
g1057
sg179
g181
sg1079
g1062
sg84
g86
sg292
g294
sg1540
g1534
sg297
g299
sg1054
g1047
sg1207
g1191
ssS'_Process__partialschedules'
p1550
(dp1551
sg1054
g1047
sb.